
obj/kern/kernel:     file format elf32-i386


Disassembly of section .text:

00100000 <pmmap_init.cold>:
  100000:	80 7c 24 2f 00       	cmpb   $0x0,0x2f(%esp)
  100005:	8b 7c 24 20          	mov    0x20(%esp),%edi
  100009:	74 06                	je     100011 <pmmap_init.cold+0x11>
  10000b:	89 bd 84 76 02 00    	mov    %edi,0x27684(%ebp)
    int sublist_nr;

    /*
     * Step 1: Merge overlapped entries in pmmap_list.
     */
    SLIST_FOREACH(slot, &pmmap_list, next) {
  100011:	80 7c 24 14 00       	cmpb   $0x0,0x14(%esp)
  100016:	74 0a                	je     100022 <pmmap_init.cold+0x22>
  100018:	c7 85 88 76 02 00 80 	movl   $0x80,0x27688(%ebp)
  10001f:	00 00 00 
        KERN_PANIC("More than 128 E820 entries.\n");
  100022:	50                   	push   %eax
  100023:	8d 85 2e 81 ff ff    	lea    -0x7ed2(%ebp),%eax
  100029:	89 eb                	mov    %ebp,%ebx
  10002b:	50                   	push   %eax
  10002c:	8d 85 4b 81 ff ff    	lea    -0x7eb5(%ebp),%eax
  100032:	6a 3c                	push   $0x3c
  100034:	50                   	push   %eax
  100035:	e8 26 41 00 00       	call   104160 <debug_panic>
    free_slot->start = start;
  10003a:	31 d2                	xor    %edx,%edx
  10003c:	89 15 00 00 00 00    	mov    %edx,0x0
  100042:	0f 0b                	ud2
  100044:	66 90                	xchg   %ax,%ax
  100046:	66 90                	xchg   %ax,%ax
  100048:	66 90                	xchg   %ax,%ax
  10004a:	66 90                	xchg   %ax,%ax
  10004c:	66 90                	xchg   %ax,%ax
  10004e:	66 90                	xchg   %ax,%ax

00100050 <video_init>:
    unsigned pos;

    /* Get a pointer to the memory-mapped text display buffer. */
    cp = (uint16_t *) CGA_BUF;
    was = *cp;
    *cp = (uint16_t) 0xA55A;
  100050:	b9 5a a5 ff ff       	mov    $0xffffa55a,%ecx
{
  100055:	57                   	push   %edi
  100056:	56                   	push   %esi
  100057:	53                   	push   %ebx
    was = *cp;
  100058:	0f b7 15 00 80 0b 00 	movzwl 0xb8000,%edx
    *cp = (uint16_t) 0xA55A;
  10005f:	e8 3e 03 00 00       	call   1003a2 <__x86.get_pc_thunk.bx>
  100064:	81 c3 90 0f 01 00    	add    $0x10f90,%ebx
  10006a:	66 89 0d 00 80 0b 00 	mov    %cx,0xb8000
    if (*cp != 0xA55A) {
  100071:	0f b7 05 00 80 0b 00 	movzwl 0xb8000,%eax
  100078:	66 3d 5a a5          	cmp    $0xa55a,%ax
  10007c:	0f 84 96 00 00 00    	je     100118 <video_init+0xc8>
        cp = (uint16_t *) MONO_BUF;
        addr_6845 = MONO_BASE;
        dprintf("addr_6845:%x\n", addr_6845);
  100082:	83 ec 08             	sub    $0x8,%esp
  100085:	8d 83 0c 80 ff ff    	lea    -0x7ff4(%ebx),%eax
        cp = (uint16_t *) MONO_BUF;
  10008b:	bf 00 00 0b 00       	mov    $0xb0000,%edi
        addr_6845 = MONO_BASE;
  100090:	c7 83 18 70 02 00 b4 	movl   $0x3b4,0x27018(%ebx)
  100097:	03 00 00 
        dprintf("addr_6845:%x\n", addr_6845);
  10009a:	68 b4 03 00 00       	push   $0x3b4
  10009f:	50                   	push   %eax
  1000a0:	e8 2b 43 00 00       	call   1043d0 <dprintf>
  1000a5:	83 c4 10             	add    $0x10,%esp
        addr_6845 = CGA_BASE;
        dprintf("addr_6845:%x\n", addr_6845);
    }

    /* Extract cursor location */
    outb(addr_6845, 14);
  1000a8:	83 ec 08             	sub    $0x8,%esp
  1000ab:	6a 0e                	push   $0xe
  1000ad:	ff b3 18 70 02 00    	push   0x27018(%ebx)
  1000b3:	e8 c8 4e 00 00       	call   104f80 <outb>
    pos = inb(addr_6845 + 1) << 8;
  1000b8:	8b 83 18 70 02 00    	mov    0x27018(%ebx),%eax
  1000be:	83 c0 01             	add    $0x1,%eax
  1000c1:	89 04 24             	mov    %eax,(%esp)
  1000c4:	e8 87 4e 00 00       	call   104f50 <inb>
  1000c9:	0f b6 f0             	movzbl %al,%esi
    outb(addr_6845, 15);
  1000cc:	58                   	pop    %eax
  1000cd:	5a                   	pop    %edx
  1000ce:	6a 0f                	push   $0xf
  1000d0:	ff b3 18 70 02 00    	push   0x27018(%ebx)
    pos = inb(addr_6845 + 1) << 8;
  1000d6:	c1 e6 08             	shl    $0x8,%esi
    outb(addr_6845, 15);
  1000d9:	e8 a2 4e 00 00       	call   104f80 <outb>
    pos |= inb(addr_6845 + 1);
  1000de:	8b 83 18 70 02 00    	mov    0x27018(%ebx),%eax
  1000e4:	83 c0 01             	add    $0x1,%eax
  1000e7:	89 04 24             	mov    %eax,(%esp)
  1000ea:	e8 61 4e 00 00       	call   104f50 <inb>

    terminal.crt_buf = (uint16_t *) cp;
    terminal.crt_pos = pos;
    terminal.active_console = 0;
}
  1000ef:	83 c4 10             	add    $0x10,%esp
    terminal.crt_buf = (uint16_t *) cp;
  1000f2:	89 bb 0c 70 02 00    	mov    %edi,0x2700c(%ebx)
    terminal.active_console = 0;
  1000f8:	c7 83 14 70 02 00 00 	movl   $0x0,0x27014(%ebx)
  1000ff:	00 00 00 
    pos |= inb(addr_6845 + 1);
  100102:	0f b6 c0             	movzbl %al,%eax
  100105:	09 f0                	or     %esi,%eax
    terminal.crt_pos = pos;
  100107:	66 89 83 10 70 02 00 	mov    %ax,0x27010(%ebx)
}
  10010e:	5b                   	pop    %ebx
  10010f:	5e                   	pop    %esi
  100110:	5f                   	pop    %edi
  100111:	c3                   	ret
  100112:	8d b6 00 00 00 00    	lea    0x0(%esi),%esi
        dprintf("addr_6845:%x\n", addr_6845);
  100118:	83 ec 08             	sub    $0x8,%esp
  10011b:	8d 83 0c 80 ff ff    	lea    -0x7ff4(%ebx),%eax
    cp = (uint16_t *) CGA_BUF;
  100121:	bf 00 80 0b 00       	mov    $0xb8000,%edi
        *cp = was;
  100126:	66 89 15 00 80 0b 00 	mov    %dx,0xb8000
        dprintf("addr_6845:%x\n", addr_6845);
  10012d:	68 d4 03 00 00       	push   $0x3d4
  100132:	50                   	push   %eax
        addr_6845 = CGA_BASE;
  100133:	c7 83 18 70 02 00 d4 	movl   $0x3d4,0x27018(%ebx)
  10013a:	03 00 00 
        dprintf("addr_6845:%x\n", addr_6845);
  10013d:	e8 8e 42 00 00       	call   1043d0 <dprintf>
  100142:	83 c4 10             	add    $0x10,%esp
  100145:	e9 5e ff ff ff       	jmp    1000a8 <video_init+0x58>
  10014a:	8d b6 00 00 00 00    	lea    0x0(%esi),%esi

00100150 <video_putc>:

void video_putc(int c)
{
  100150:	56                   	push   %esi
  100151:	53                   	push   %ebx
  100152:	e8 4b 02 00 00       	call   1003a2 <__x86.get_pc_thunk.bx>
  100157:	81 c3 9d 0e 01 00    	add    $0x10e9d,%ebx
  10015d:	83 ec 04             	sub    $0x4,%esp
  100160:	8b 54 24 10          	mov    0x10(%esp),%edx
    // if no attribute given, then use black on white
    if (!(c & ~0xFF))
        c |= 0x0700;
  100164:	89 d0                	mov    %edx,%eax
  100166:	80 cc 07             	or     $0x7,%ah
  100169:	81 fa 00 01 00 00    	cmp    $0x100,%edx
  10016f:	0f 42 d0             	cmovb  %eax,%edx

    switch (c & 0xff) {
  100172:	0f b6 c2             	movzbl %dl,%eax
  100175:	83 f8 0a             	cmp    $0xa,%eax
  100178:	0f 84 9c 01 00 00    	je     10031a <video_putc+0x1ca>
  10017e:	0f 8f 4c 01 00 00    	jg     1002d0 <video_putc+0x180>
  100184:	83 f8 08             	cmp    $0x8,%eax
  100187:	0f 84 ae 00 00 00    	je     10023b <video_putc+0xeb>
  10018d:	83 f8 09             	cmp    $0x9,%eax
  100190:	0f 85 64 01 00 00    	jne    1002fa <video_putc+0x1aa>
        /* fallthru */
    case '\r':
        terminal.crt_pos -= (terminal.crt_pos % CRT_COLS);
        break;
    case '\t':
        video_putc(' ');
  100196:	83 ec 0c             	sub    $0xc,%esp
  100199:	6a 20                	push   $0x20
  10019b:	e8 b0 ff ff ff       	call   100150 <video_putc>
        video_putc(' ');
  1001a0:	c7 04 24 20 00 00 00 	movl   $0x20,(%esp)
  1001a7:	e8 a4 ff ff ff       	call   100150 <video_putc>
        video_putc(' ');
  1001ac:	c7 04 24 20 00 00 00 	movl   $0x20,(%esp)
  1001b3:	e8 98 ff ff ff       	call   100150 <video_putc>
        video_putc(' ');
  1001b8:	c7 04 24 20 00 00 00 	movl   $0x20,(%esp)
  1001bf:	e8 8c ff ff ff       	call   100150 <video_putc>
        video_putc(' ');
  1001c4:	c7 04 24 20 00 00 00 	movl   $0x20,(%esp)
  1001cb:	e8 80 ff ff ff       	call   100150 <video_putc>
    default:
        terminal.crt_buf[terminal.crt_pos++] = c;  /* write the character */
        break;
    }

    if (terminal.crt_pos >= CRT_SIZE) {
  1001d0:	0f b7 83 10 70 02 00 	movzwl 0x27010(%ebx),%eax
        break;
  1001d7:	83 c4 10             	add    $0x10,%esp
    if (terminal.crt_pos >= CRT_SIZE) {
  1001da:	66 3d cf 07          	cmp    $0x7cf,%ax
  1001de:	0f 87 8c 00 00 00    	ja     100270 <video_putc+0x120>
            terminal.crt_buf[i] = 0x0700 | ' ';
        terminal.crt_pos -= CRT_COLS;
    }

    /* move that little blinky thing */
    outb(addr_6845, 14);
  1001e4:	83 ec 08             	sub    $0x8,%esp
  1001e7:	6a 0e                	push   $0xe
  1001e9:	ff b3 18 70 02 00    	push   0x27018(%ebx)
  1001ef:	e8 8c 4d 00 00       	call   104f80 <outb>
    outb(addr_6845 + 1, terminal.crt_pos >> 8);
  1001f4:	58                   	pop    %eax
  1001f5:	0f b6 83 11 70 02 00 	movzbl 0x27011(%ebx),%eax
  1001fc:	5a                   	pop    %edx
  1001fd:	50                   	push   %eax
  1001fe:	8b 83 18 70 02 00    	mov    0x27018(%ebx),%eax
  100204:	83 c0 01             	add    $0x1,%eax
  100207:	50                   	push   %eax
  100208:	e8 73 4d 00 00       	call   104f80 <outb>
    outb(addr_6845, 15);
  10020d:	59                   	pop    %ecx
  10020e:	5e                   	pop    %esi
  10020f:	6a 0f                	push   $0xf
  100211:	ff b3 18 70 02 00    	push   0x27018(%ebx)
  100217:	e8 64 4d 00 00       	call   104f80 <outb>
    outb(addr_6845 + 1, terminal.crt_pos);
  10021c:	58                   	pop    %eax
  10021d:	0f b6 83 10 70 02 00 	movzbl 0x27010(%ebx),%eax
  100224:	5a                   	pop    %edx
  100225:	50                   	push   %eax
  100226:	8b 83 18 70 02 00    	mov    0x27018(%ebx),%eax
  10022c:	83 c0 01             	add    $0x1,%eax
  10022f:	50                   	push   %eax
  100230:	e8 4b 4d 00 00       	call   104f80 <outb>
}
  100235:	83 c4 14             	add    $0x14,%esp
  100238:	5b                   	pop    %ebx
  100239:	5e                   	pop    %esi
  10023a:	c3                   	ret
        if (terminal.crt_pos > 0) {
  10023b:	0f b7 83 10 70 02 00 	movzwl 0x27010(%ebx),%eax
  100242:	66 85 c0             	test   %ax,%ax
  100245:	74 9d                	je     1001e4 <video_putc+0x94>
            terminal.crt_pos--;
  100247:	83 e8 01             	sub    $0x1,%eax
            terminal.crt_buf[terminal.crt_pos] = (c & ~0xff) | ' ';
  10024a:	8b 8b 0c 70 02 00    	mov    0x2700c(%ebx),%ecx
  100250:	30 d2                	xor    %dl,%dl
  100252:	0f b7 f0             	movzwl %ax,%esi
  100255:	83 ca 20             	or     $0x20,%edx
            terminal.crt_pos--;
  100258:	66 89 83 10 70 02 00 	mov    %ax,0x27010(%ebx)
            terminal.crt_buf[terminal.crt_pos] = (c & ~0xff) | ' ';
  10025f:	66 89 14 71          	mov    %dx,(%ecx,%esi,2)
    if (terminal.crt_pos >= CRT_SIZE) {
  100263:	66 3d cf 07          	cmp    $0x7cf,%ax
  100267:	0f 86 77 ff ff ff    	jbe    1001e4 <video_putc+0x94>
  10026d:	8d 76 00             	lea    0x0(%esi),%esi
        memmove(terminal.crt_buf, terminal.crt_buf + CRT_COLS,
  100270:	8b 83 0c 70 02 00    	mov    0x2700c(%ebx),%eax
  100276:	83 ec 04             	sub    $0x4,%esp
  100279:	68 00 0f 00 00       	push   $0xf00
  10027e:	8d 90 a0 00 00 00    	lea    0xa0(%eax),%edx
  100284:	52                   	push   %edx
  100285:	50                   	push   %eax
  100286:	e8 05 3c 00 00       	call   103e90 <memmove>
            terminal.crt_buf[i] = 0x0700 | ' ';
  10028b:	8b 93 0c 70 02 00    	mov    0x2700c(%ebx),%edx
  100291:	83 c4 10             	add    $0x10,%esp
  100294:	8d 82 00 0f 00 00    	lea    0xf00(%edx),%eax
  10029a:	81 c2 a0 0f 00 00    	add    $0xfa0,%edx
  1002a0:	b9 20 07 00 00       	mov    $0x720,%ecx
  1002a5:	be 20 07 00 00       	mov    $0x720,%esi
        for (i = CRT_SIZE - CRT_COLS; i < CRT_SIZE; i++)
  1002aa:	83 c0 04             	add    $0x4,%eax
            terminal.crt_buf[i] = 0x0700 | ' ';
  1002ad:	66 89 48 fc          	mov    %cx,-0x4(%eax)
  1002b1:	66 89 70 fe          	mov    %si,-0x2(%eax)
        for (i = CRT_SIZE - CRT_COLS; i < CRT_SIZE; i++)
  1002b5:	39 c2                	cmp    %eax,%edx
  1002b7:	75 e7                	jne    1002a0 <video_putc+0x150>
        terminal.crt_pos -= CRT_COLS;
  1002b9:	66 83 ab 10 70 02 00 	subw   $0x50,0x27010(%ebx)
  1002c0:	50 
  1002c1:	e9 1e ff ff ff       	jmp    1001e4 <video_putc+0x94>
  1002c6:	2e 8d b4 26 00 00 00 	lea    %cs:0x0(%esi,%eiz,1),%esi
  1002cd:	00 
  1002ce:	66 90                	xchg   %ax,%ax
    switch (c & 0xff) {
  1002d0:	83 f8 0d             	cmp    $0xd,%eax
  1002d3:	75 25                	jne    1002fa <video_putc+0x1aa>
        if (terminal.crt_pos > 0) {
  1002d5:	0f b7 83 10 70 02 00 	movzwl 0x27010(%ebx),%eax
        terminal.crt_pos -= (terminal.crt_pos % CRT_COLS);
  1002dc:	0f b7 c0             	movzwl %ax,%eax
  1002df:	69 c0 cd cc 00 00    	imul   $0xcccd,%eax,%eax
  1002e5:	c1 e8 16             	shr    $0x16,%eax
  1002e8:	8d 04 80             	lea    (%eax,%eax,4),%eax
  1002eb:	c1 e0 04             	shl    $0x4,%eax
  1002ee:	66 89 83 10 70 02 00 	mov    %ax,0x27010(%ebx)
        break;
  1002f5:	e9 e0 fe ff ff       	jmp    1001da <video_putc+0x8a>
        terminal.crt_buf[terminal.crt_pos++] = c;  /* write the character */
  1002fa:	0f b7 8b 10 70 02 00 	movzwl 0x27010(%ebx),%ecx
  100301:	8b b3 0c 70 02 00    	mov    0x2700c(%ebx),%esi
  100307:	8d 41 01             	lea    0x1(%ecx),%eax
  10030a:	66 89 14 4e          	mov    %dx,(%esi,%ecx,2)
  10030e:	66 89 83 10 70 02 00 	mov    %ax,0x27010(%ebx)
        break;
  100315:	e9 c0 fe ff ff       	jmp    1001da <video_putc+0x8a>
        terminal.crt_pos += CRT_COLS;
  10031a:	0f b7 83 10 70 02 00 	movzwl 0x27010(%ebx),%eax
  100321:	83 c0 50             	add    $0x50,%eax
  100324:	eb b6                	jmp    1002dc <video_putc+0x18c>
  100326:	2e 8d b4 26 00 00 00 	lea    %cs:0x0(%esi,%eiz,1),%esi
  10032d:	00 
  10032e:	66 90                	xchg   %ax,%ax

00100330 <video_set_cursor>:

void video_set_cursor(int x, int y)
{
    terminal.crt_pos = x * CRT_COLS + y;
  100330:	e8 69 00 00 00       	call   10039e <__x86.get_pc_thunk.dx>
  100335:	81 c2 bf 0c 01 00    	add    $0x10cbf,%edx
{
  10033b:	8b 44 24 04          	mov    0x4(%esp),%eax
    terminal.crt_pos = x * CRT_COLS + y;
  10033f:	8d 04 80             	lea    (%eax,%eax,4),%eax
  100342:	c1 e0 04             	shl    $0x4,%eax
  100345:	66 03 44 24 08       	add    0x8(%esp),%ax
  10034a:	66 89 82 10 70 02 00 	mov    %ax,0x27010(%edx)
}
  100351:	c3                   	ret
  100352:	2e 8d b4 26 00 00 00 	lea    %cs:0x0(%esi,%eiz,1),%esi
  100359:	00 
  10035a:	8d b6 00 00 00 00    	lea    0x0(%esi),%esi

00100360 <video_clear_screen>:

void video_clear_screen()
{
    int i;
    for (i = 0; i < CRT_SIZE; i++) {
  100360:	e8 35 00 00 00       	call   10039a <__x86.get_pc_thunk.ax>
  100365:	05 8f 0c 01 00       	add    $0x10c8f,%eax
  10036a:	8b 80 0c 70 02 00    	mov    0x2700c(%eax),%eax
  100370:	8d 90 a0 0f 00 00    	lea    0xfa0(%eax),%edx
  100376:	2e 8d b4 26 00 00 00 	lea    %cs:0x0(%esi,%eiz,1),%esi
  10037d:	00 
  10037e:	66 90                	xchg   %ax,%ax
        terminal.crt_buf[i] = ' ';
  100380:	b9 20 00 00 00       	mov    $0x20,%ecx
    for (i = 0; i < CRT_SIZE; i++) {
  100385:	83 c0 04             	add    $0x4,%eax
        terminal.crt_buf[i] = ' ';
  100388:	66 89 48 fc          	mov    %cx,-0x4(%eax)
  10038c:	b9 20 00 00 00       	mov    $0x20,%ecx
  100391:	66 89 48 fe          	mov    %cx,-0x2(%eax)
    for (i = 0; i < CRT_SIZE; i++) {
  100395:	39 d0                	cmp    %edx,%eax
  100397:	75 e7                	jne    100380 <video_clear_screen+0x20>
    }
}
  100399:	c3                   	ret

0010039a <__x86.get_pc_thunk.ax>:
  10039a:	8b 04 24             	mov    (%esp),%eax
  10039d:	c3                   	ret

0010039e <__x86.get_pc_thunk.dx>:
  10039e:	8b 14 24             	mov    (%esp),%edx
  1003a1:	c3                   	ret

001003a2 <__x86.get_pc_thunk.bx>:
  1003a2:	8b 1c 24             	mov    (%esp),%ebx
  1003a5:	c3                   	ret
  1003a6:	66 90                	xchg   %ax,%ax
  1003a8:	66 90                	xchg   %ax,%ax
  1003aa:	66 90                	xchg   %ax,%ax
  1003ac:	66 90                	xchg   %ax,%ax
  1003ae:	66 90                	xchg   %ax,%ax

001003b0 <cons_init>:
    char buf[CONSOLE_BUFFER_SIZE];
    uint32_t rpos, wpos;
} cons;

void cons_init()
{
  1003b0:	53                   	push   %ebx
  1003b1:	e8 ec ff ff ff       	call   1003a2 <__x86.get_pc_thunk.bx>
  1003b6:	81 c3 3e 0c 01 00    	add    $0x10c3e,%ebx
  1003bc:	83 ec 14             	sub    $0x14,%esp
    spinlock_init(&console_lock); // intializing the console lock
  1003bf:	8d 83 34 72 02 00    	lea    0x27234(%ebx),%eax
  1003c5:	50                   	push   %eax
  1003c6:	e8 35 54 00 00       	call   105800 <spinlock_init>

    memset(&cons, 0x0, sizeof(cons));
  1003cb:	83 c4 0c             	add    $0xc,%esp
  1003ce:	8d 83 2c 70 02 00    	lea    0x2702c(%ebx),%eax
  1003d4:	68 08 02 00 00       	push   $0x208
  1003d9:	6a 00                	push   $0x0
  1003db:	50                   	push   %eax
  1003dc:	e8 6f 3a 00 00       	call   103e50 <memset>
    serial_init();
  1003e1:	e8 aa 04 00 00       	call   100890 <serial_init>
    video_init();
  1003e6:	e8 65 fc ff ff       	call   100050 <video_init>
}
  1003eb:	83 c4 18             	add    $0x18,%esp
  1003ee:	5b                   	pop    %ebx
  1003ef:	c3                   	ret

001003f0 <cons_intr>:

void cons_intr(int (*proc)(void))
{
  1003f0:	55                   	push   %ebp
  1003f1:	57                   	push   %edi
  1003f2:	56                   	push   %esi


    while ((c = (*proc)()) != -1) {
        if (c == 0)
            continue;
        cons.buf[cons.wpos++] = c;
  1003f3:	8d 35 2c 70 02 00    	lea    0x2702c,%esi
{
  1003f9:	53                   	push   %ebx
  1003fa:	e8 a3 ff ff ff       	call   1003a2 <__x86.get_pc_thunk.bx>
  1003ff:	81 c3 f5 0b 01 00    	add    $0x10bf5,%ebx
  100405:	83 ec 28             	sub    $0x28,%esp
  100408:	8b 7c 24 3c          	mov    0x3c(%esp),%edi
    spinlock_acquire(&console_lock);
  10040c:	8d 83 34 72 02 00    	lea    0x27234(%ebx),%eax
        cons.buf[cons.wpos++] = c;
  100412:	8d 2c 33             	lea    (%ebx,%esi,1),%ebp
    spinlock_acquire(&console_lock);
  100415:	89 44 24 18          	mov    %eax,0x18(%esp)
  100419:	50                   	push   %eax
  10041a:	e8 71 54 00 00       	call   105890 <spinlock_acquire>
    while ((c = (*proc)()) != -1) {
  10041f:	83 c4 10             	add    $0x10,%esp
  100422:	8d b6 00 00 00 00    	lea    0x0(%esi),%esi
  100428:	ff d7                	call   *%edi
  10042a:	83 f8 ff             	cmp    $0xffffffff,%eax
  10042d:	74 33                	je     100462 <cons_intr+0x72>
        if (c == 0)
  10042f:	85 c0                	test   %eax,%eax
  100431:	74 f5                	je     100428 <cons_intr+0x38>
        cons.buf[cons.wpos++] = c;
  100433:	8b 8c 33 04 02 00 00 	mov    0x204(%ebx,%esi,1),%ecx
  10043a:	8d 51 01             	lea    0x1(%ecx),%edx
  10043d:	88 44 0d 00          	mov    %al,0x0(%ebp,%ecx,1)
  100441:	89 94 33 04 02 00 00 	mov    %edx,0x204(%ebx,%esi,1)
        if (cons.wpos == CONSOLE_BUFFER_SIZE)
  100448:	81 fa 00 02 00 00    	cmp    $0x200,%edx
  10044e:	75 d8                	jne    100428 <cons_intr+0x38>
            cons.wpos = 0;
  100450:	c7 84 1e 04 02 00 00 	movl   $0x0,0x204(%esi,%ebx,1)
  100457:	00 00 00 00 
    while ((c = (*proc)()) != -1) {
  10045b:	ff d7                	call   *%edi
  10045d:	83 f8 ff             	cmp    $0xffffffff,%eax
  100460:	75 cd                	jne    10042f <cons_intr+0x3f>
    }
    spinlock_release(&console_lock);
  100462:	83 ec 0c             	sub    $0xc,%esp
  100465:	ff 74 24 18          	push   0x18(%esp)
  100469:	e8 a2 54 00 00       	call   105910 <spinlock_release>

}
  10046e:	83 c4 2c             	add    $0x2c,%esp
  100471:	5b                   	pop    %ebx
  100472:	5e                   	pop    %esi
  100473:	5f                   	pop    %edi
  100474:	5d                   	pop    %ebp
  100475:	c3                   	ret
  100476:	2e 8d b4 26 00 00 00 	lea    %cs:0x0(%esi,%eiz,1),%esi
  10047d:	00 
  10047e:	66 90                	xchg   %ax,%ax

00100480 <cons_getc>:

char cons_getc(void)
{
  100480:	57                   	push   %edi
  100481:	56                   	push   %esi
  100482:	53                   	push   %ebx
  100483:	e8 1a ff ff ff       	call   1003a2 <__x86.get_pc_thunk.bx>
  100488:	81 c3 6c 0b 01 00    	add    $0x10b6c,%ebx

    // poll for any pending input characters,
    // so that this function works even when interrupts are disabled
    // (e.g., when called from the kernel monitor).

    spinlock_acquire(&console_lock);
  10048e:	83 ec 0c             	sub    $0xc,%esp
  100491:	8d b3 34 72 02 00    	lea    0x27234(%ebx),%esi
  100497:	56                   	push   %esi
  100498:	e8 f3 53 00 00       	call   105890 <spinlock_acquire>

    serial_intr();
  10049d:	e8 ee 02 00 00       	call   100790 <serial_intr>
    keyboard_intr();
  1004a2:	e8 59 06 00 00       	call   100b00 <keyboard_intr>

    // grab the next character from the input buffer.
    if (cons.rpos != cons.wpos) {
  1004a7:	8b 83 2c 72 02 00    	mov    0x2722c(%ebx),%eax
  1004ad:	83 c4 10             	add    $0x10,%esp
  1004b0:	3b 83 30 72 02 00    	cmp    0x27230(%ebx),%eax
  1004b6:	74 38                	je     1004f0 <cons_getc+0x70>
        c = cons.buf[cons.rpos++];
  1004b8:	0f b6 bc 03 2c 70 02 	movzbl 0x2702c(%ebx,%eax,1),%edi
  1004bf:	00 
        if (cons.rpos == CONSOLE_BUFFER_SIZE)
            cons.rpos = 0;
  1004c0:	3d ff 01 00 00       	cmp    $0x1ff,%eax
        c = cons.buf[cons.rpos++];
  1004c5:	8d 50 01             	lea    0x1(%eax),%edx
            cons.rpos = 0;
  1004c8:	b8 00 00 00 00       	mov    $0x0,%eax
  1004cd:	0f 44 d0             	cmove  %eax,%edx
        spinlock_release(&console_lock);
  1004d0:	83 ec 0c             	sub    $0xc,%esp
  1004d3:	56                   	push   %esi
  1004d4:	89 93 2c 72 02 00    	mov    %edx,0x2722c(%ebx)
  1004da:	e8 31 54 00 00       	call   105910 <spinlock_release>
        return c;
  1004df:	83 c4 10             	add    $0x10,%esp
    }
    spinlock_release(&console_lock);

    return 0;
}
  1004e2:	89 f8                	mov    %edi,%eax
  1004e4:	5b                   	pop    %ebx
  1004e5:	5e                   	pop    %esi
  1004e6:	5f                   	pop    %edi
  1004e7:	c3                   	ret
  1004e8:	2e 8d b4 26 00 00 00 	lea    %cs:0x0(%esi,%eiz,1),%esi
  1004ef:	00 
    spinlock_release(&console_lock);
  1004f0:	83 ec 0c             	sub    $0xc,%esp
    return 0;
  1004f3:	31 ff                	xor    %edi,%edi
    spinlock_release(&console_lock);
  1004f5:	56                   	push   %esi
  1004f6:	e8 15 54 00 00       	call   105910 <spinlock_release>
    return 0;
  1004fb:	83 c4 10             	add    $0x10,%esp
}
  1004fe:	89 f8                	mov    %edi,%eax
  100500:	5b                   	pop    %ebx
  100501:	5e                   	pop    %esi
  100502:	5f                   	pop    %edi
  100503:	c3                   	ret
  100504:	2e 8d b4 26 00 00 00 	lea    %cs:0x0(%esi,%eiz,1),%esi
  10050b:	00 
  10050c:	8d 74 26 00          	lea    0x0(%esi,%eiz,1),%esi

00100510 <cons_putc>:

void cons_putc(char c)
{
  100510:	57                   	push   %edi
  100511:	56                   	push   %esi
  100512:	53                   	push   %ebx
  100513:	8b 74 24 10          	mov    0x10(%esp),%esi
  100517:	e8 86 fe ff ff       	call   1003a2 <__x86.get_pc_thunk.bx>
  10051c:	81 c3 d8 0a 01 00    	add    $0x10ad8,%ebx
    spinlock_acquire(&console_lock);
  100522:	83 ec 0c             	sub    $0xc,%esp
  100525:	8d bb 34 72 02 00    	lea    0x27234(%ebx),%edi
  10052b:	57                   	push   %edi
  10052c:	e8 5f 53 00 00       	call   105890 <spinlock_acquire>
    serial_putc(c);
  100531:	89 f0                	mov    %esi,%eax
  100533:	0f be f0             	movsbl %al,%esi
  100536:	89 34 24             	mov    %esi,(%esp)
  100539:	e8 92 02 00 00       	call   1007d0 <serial_putc>
    video_putc(c);
  10053e:	89 34 24             	mov    %esi,(%esp)
  100541:	e8 0a fc ff ff       	call   100150 <video_putc>
    spinlock_release(&console_lock);
  100546:	89 3c 24             	mov    %edi,(%esp)
  100549:	e8 c2 53 00 00       	call   105910 <spinlock_release>

}
  10054e:	83 c4 10             	add    $0x10,%esp
  100551:	5b                   	pop    %ebx
  100552:	5e                   	pop    %esi
  100553:	5f                   	pop    %edi
  100554:	c3                   	ret
  100555:	2e 8d b4 26 00 00 00 	lea    %cs:0x0(%esi,%eiz,1),%esi
  10055c:	00 
  10055d:	8d 76 00             	lea    0x0(%esi),%esi

00100560 <getchar>:

char getchar(void)
{
  100560:	83 ec 0c             	sub    $0xc,%esp
    char c;

    while ((c = cons_getc()) == 0)
  100563:	2e 8d 74 26 00       	lea    %cs:0x0(%esi,%eiz,1),%esi
  100568:	e8 13 ff ff ff       	call   100480 <cons_getc>
  10056d:	84 c0                	test   %al,%al
  10056f:	74 f7                	je     100568 <getchar+0x8>
        /* do nothing */ ;
    return c;
}
  100571:	83 c4 0c             	add    $0xc,%esp
  100574:	c3                   	ret
  100575:	2e 8d b4 26 00 00 00 	lea    %cs:0x0(%esi,%eiz,1),%esi
  10057c:	00 
  10057d:	8d 76 00             	lea    0x0(%esi),%esi

00100580 <putchar>:

void putchar(char c)
{
  100580:	57                   	push   %edi
  100581:	56                   	push   %esi
  100582:	53                   	push   %ebx
  100583:	8b 74 24 10          	mov    0x10(%esp),%esi
    spinlock_acquire(&console_lock);
  100587:	e8 16 fe ff ff       	call   1003a2 <__x86.get_pc_thunk.bx>
  10058c:	81 c3 68 0a 01 00    	add    $0x10a68,%ebx
  100592:	83 ec 0c             	sub    $0xc,%esp
  100595:	8d bb 34 72 02 00    	lea    0x27234(%ebx),%edi
  10059b:	57                   	push   %edi
  10059c:	e8 ef 52 00 00       	call   105890 <spinlock_acquire>
    serial_putc(c);
  1005a1:	89 f0                	mov    %esi,%eax
  1005a3:	0f be f0             	movsbl %al,%esi
  1005a6:	89 34 24             	mov    %esi,(%esp)
  1005a9:	e8 22 02 00 00       	call   1007d0 <serial_putc>
    video_putc(c);
  1005ae:	89 34 24             	mov    %esi,(%esp)
  1005b1:	e8 9a fb ff ff       	call   100150 <video_putc>
    spinlock_release(&console_lock);
  1005b6:	89 3c 24             	mov    %edi,(%esp)
  1005b9:	e8 52 53 00 00       	call   105910 <spinlock_release>
    cons_putc(c);
}
  1005be:	83 c4 10             	add    $0x10,%esp
  1005c1:	5b                   	pop    %ebx
  1005c2:	5e                   	pop    %esi
  1005c3:	5f                   	pop    %edi
  1005c4:	c3                   	ret
  1005c5:	2e 8d b4 26 00 00 00 	lea    %cs:0x0(%esi,%eiz,1),%esi
  1005cc:	00 
  1005cd:	8d 76 00             	lea    0x0(%esi),%esi

001005d0 <readline>:

char *readline(const char *prompt)
{
  1005d0:	55                   	push   %ebp
  1005d1:	57                   	push   %edi
  1005d2:	56                   	push   %esi
  1005d3:	53                   	push   %ebx
  1005d4:	e8 c9 fd ff ff       	call   1003a2 <__x86.get_pc_thunk.bx>
  1005d9:	81 c3 1b 0a 01 00    	add    $0x10a1b,%ebx
  1005df:	83 ec 1c             	sub    $0x1c,%esp
  1005e2:	8b 44 24 30          	mov    0x30(%esp),%eax
    int i;
    char c;

    if (prompt != NULL)
  1005e6:	85 c0                	test   %eax,%eax
  1005e8:	74 13                	je     1005fd <readline+0x2d>
        dprintf("%s", prompt);
  1005ea:	83 ec 08             	sub    $0x8,%esp
  1005ed:	50                   	push   %eax
  1005ee:	8d 83 aa 85 ff ff    	lea    -0x7a56(%ebx),%eax
  1005f4:	50                   	push   %eax
  1005f5:	e8 d6 3d 00 00       	call   1043d0 <dprintf>
  1005fa:	83 c4 10             	add    $0x10,%esp
        } else if ((c == '\b' || c == '\x7f') && i > 0) {
            putchar('\b');
            i--;
        } else if (c >= ' ' && i < BUFLEN - 1) {
            putchar(c);
            linebuf[i++] = c;
  1005fd:	8d 83 4c 72 02 00    	lea    0x2724c(%ebx),%eax
  100603:	31 f6                	xor    %esi,%esi
  100605:	89 44 24 0c          	mov    %eax,0xc(%esp)
  100609:	8d b4 26 00 00 00 00 	lea    0x0(%esi,%eiz,1),%esi
    while ((c = cons_getc()) == 0)
  100610:	e8 6b fe ff ff       	call   100480 <cons_getc>
  100615:	84 c0                	test   %al,%al
  100617:	74 f7                	je     100610 <readline+0x40>
        if (c < 0) {
  100619:	0f 88 f3 00 00 00    	js     100712 <readline+0x142>
        } else if ((c == '\b' || c == '\x7f') && i > 0) {
  10061f:	3c 08                	cmp    $0x8,%al
  100621:	0f 94 c2             	sete   %dl
  100624:	3c 7f                	cmp    $0x7f,%al
  100626:	0f 94 c1             	sete   %cl
  100629:	08 ca                	or     %cl,%dl
  10062b:	74 08                	je     100635 <readline+0x65>
  10062d:	85 f6                	test   %esi,%esi
  10062f:	0f 8f a3 00 00 00    	jg     1006d8 <readline+0x108>
        } else if (c >= ' ' && i < BUFLEN - 1) {
  100635:	3c 1f                	cmp    $0x1f,%al
  100637:	7e 4f                	jle    100688 <readline+0xb8>
  100639:	81 fe fe 03 00 00    	cmp    $0x3fe,%esi
  10063f:	7f 47                	jg     100688 <readline+0xb8>
  100641:	88 44 24 0b          	mov    %al,0xb(%esp)
    spinlock_acquire(&console_lock);
  100645:	8d ab 34 72 02 00    	lea    0x27234(%ebx),%ebp
  10064b:	83 ec 0c             	sub    $0xc,%esp
  10064e:	55                   	push   %ebp
  10064f:	e8 3c 52 00 00       	call   105890 <spinlock_acquire>
    serial_putc(c);
  100654:	0f be 7c 24 1b       	movsbl 0x1b(%esp),%edi
  100659:	89 3c 24             	mov    %edi,(%esp)
  10065c:	e8 6f 01 00 00       	call   1007d0 <serial_putc>
    video_putc(c);
  100661:	89 3c 24             	mov    %edi,(%esp)
  100664:	e8 e7 fa ff ff       	call   100150 <video_putc>
    spinlock_release(&console_lock);
  100669:	89 2c 24             	mov    %ebp,(%esp)
  10066c:	e8 9f 52 00 00       	call   105910 <spinlock_release>
            linebuf[i++] = c;
  100671:	8b 7c 24 1c          	mov    0x1c(%esp),%edi
  100675:	0f b6 44 24 1b       	movzbl 0x1b(%esp),%eax
  10067a:	83 c4 10             	add    $0x10,%esp
  10067d:	88 04 37             	mov    %al,(%edi,%esi,1)
  100680:	83 c6 01             	add    $0x1,%esi
  100683:	eb 8b                	jmp    100610 <readline+0x40>
  100685:	8d 76 00             	lea    0x0(%esi),%esi
        } else if (c == '\n' || c == '\r') {
  100688:	3c 0a                	cmp    $0xa,%al
  10068a:	74 04                	je     100690 <readline+0xc0>
  10068c:	3c 0d                	cmp    $0xd,%al
  10068e:	75 80                	jne    100610 <readline+0x40>
    spinlock_acquire(&console_lock);
  100690:	83 ec 0c             	sub    $0xc,%esp
  100693:	8d bb 34 72 02 00    	lea    0x27234(%ebx),%edi
  100699:	57                   	push   %edi
  10069a:	e8 f1 51 00 00       	call   105890 <spinlock_acquire>
    serial_putc(c);
  10069f:	c7 04 24 0a 00 00 00 	movl   $0xa,(%esp)
  1006a6:	e8 25 01 00 00       	call   1007d0 <serial_putc>
    video_putc(c);
  1006ab:	c7 04 24 0a 00 00 00 	movl   $0xa,(%esp)
  1006b2:	e8 99 fa ff ff       	call   100150 <video_putc>
    spinlock_release(&console_lock);
  1006b7:	89 3c 24             	mov    %edi,(%esp)
  1006ba:	e8 51 52 00 00       	call   105910 <spinlock_release>
            putchar('\n');
            linebuf[i] = 0;
  1006bf:	8d 83 4c 72 02 00    	lea    0x2724c(%ebx),%eax
            return linebuf;
  1006c5:	83 c4 10             	add    $0x10,%esp
            linebuf[i] = 0;
  1006c8:	c6 04 30 00          	movb   $0x0,(%eax,%esi,1)
        }
    }
}
  1006cc:	83 c4 1c             	add    $0x1c,%esp
  1006cf:	5b                   	pop    %ebx
  1006d0:	5e                   	pop    %esi
  1006d1:	5f                   	pop    %edi
  1006d2:	5d                   	pop    %ebp
  1006d3:	c3                   	ret
  1006d4:	8d 74 26 00          	lea    0x0(%esi,%eiz,1),%esi
    spinlock_acquire(&console_lock);
  1006d8:	83 ec 0c             	sub    $0xc,%esp
  1006db:	8d ab 34 72 02 00    	lea    0x27234(%ebx),%ebp
            i--;
  1006e1:	83 ee 01             	sub    $0x1,%esi
    spinlock_acquire(&console_lock);
  1006e4:	55                   	push   %ebp
  1006e5:	e8 a6 51 00 00       	call   105890 <spinlock_acquire>
    serial_putc(c);
  1006ea:	c7 04 24 08 00 00 00 	movl   $0x8,(%esp)
  1006f1:	e8 da 00 00 00       	call   1007d0 <serial_putc>
    video_putc(c);
  1006f6:	c7 04 24 08 00 00 00 	movl   $0x8,(%esp)
  1006fd:	e8 4e fa ff ff       	call   100150 <video_putc>
    spinlock_release(&console_lock);
  100702:	89 2c 24             	mov    %ebp,(%esp)
  100705:	e8 06 52 00 00       	call   105910 <spinlock_release>
            i--;
  10070a:	83 c4 10             	add    $0x10,%esp
  10070d:	e9 fe fe ff ff       	jmp    100610 <readline+0x40>
            dprintf("read error: %e\n", c);
  100712:	83 ec 08             	sub    $0x8,%esp
  100715:	0f be c0             	movsbl %al,%eax
  100718:	50                   	push   %eax
  100719:	8d 83 1a 80 ff ff    	lea    -0x7fe6(%ebx),%eax
  10071f:	50                   	push   %eax
  100720:	e8 ab 3c 00 00       	call   1043d0 <dprintf>
            return NULL;
  100725:	83 c4 10             	add    $0x10,%esp
  100728:	31 c0                	xor    %eax,%eax
}
  10072a:	83 c4 1c             	add    $0x1c,%esp
  10072d:	5b                   	pop    %ebx
  10072e:	5e                   	pop    %esi
  10072f:	5f                   	pop    %edi
  100730:	5d                   	pop    %ebp
  100731:	c3                   	ret
  100732:	66 90                	xchg   %ax,%ax
  100734:	66 90                	xchg   %ax,%ax
  100736:	66 90                	xchg   %ax,%ax
  100738:	66 90                	xchg   %ax,%ax
  10073a:	66 90                	xchg   %ax,%ax
  10073c:	66 90                	xchg   %ax,%ax
  10073e:	66 90                	xchg   %ax,%ax

00100740 <serial_proc_data>:
    inb(0x84);
    inb(0x84);
}

static int serial_proc_data(void)
{
  100740:	53                   	push   %ebx
  100741:	e8 5c fc ff ff       	call   1003a2 <__x86.get_pc_thunk.bx>
  100746:	81 c3 ae 08 01 00    	add    $0x108ae,%ebx
  10074c:	83 ec 14             	sub    $0x14,%esp
    if (!(inb(COM1 + COM_LSR) & COM_LSR_DATA))
  10074f:	68 fd 03 00 00       	push   $0x3fd
  100754:	e8 f7 47 00 00       	call   104f50 <inb>
  100759:	83 c4 10             	add    $0x10,%esp
  10075c:	a8 01                	test   $0x1,%al
  10075e:	74 20                	je     100780 <serial_proc_data+0x40>
        return -1;
    return inb(COM1 + COM_RX);
  100760:	83 ec 0c             	sub    $0xc,%esp
  100763:	68 f8 03 00 00       	push   $0x3f8
  100768:	e8 e3 47 00 00       	call   104f50 <inb>
  10076d:	83 c4 10             	add    $0x10,%esp
  100770:	0f b6 c0             	movzbl %al,%eax
}
  100773:	83 c4 08             	add    $0x8,%esp
  100776:	5b                   	pop    %ebx
  100777:	c3                   	ret
  100778:	2e 8d b4 26 00 00 00 	lea    %cs:0x0(%esi,%eiz,1),%esi
  10077f:	00 
        return -1;
  100780:	b8 ff ff ff ff       	mov    $0xffffffff,%eax
  100785:	eb ec                	jmp    100773 <serial_proc_data+0x33>
  100787:	2e 8d b4 26 00 00 00 	lea    %cs:0x0(%esi,%eiz,1),%esi
  10078e:	00 
  10078f:	90                   	nop

00100790 <serial_intr>:

void serial_intr(void)
{
  100790:	53                   	push   %ebx
  100791:	e8 0c fc ff ff       	call   1003a2 <__x86.get_pc_thunk.bx>
  100796:	81 c3 5e 08 01 00    	add    $0x1085e,%ebx
  10079c:	83 ec 08             	sub    $0x8,%esp
    if (serial_exists)
  10079f:	80 bb 4c 76 02 00 00 	cmpb   $0x0,0x2764c(%ebx)
  1007a6:	75 08                	jne    1007b0 <serial_intr+0x20>
        cons_intr(serial_proc_data);
}
  1007a8:	83 c4 08             	add    $0x8,%esp
  1007ab:	5b                   	pop    %ebx
  1007ac:	c3                   	ret
  1007ad:	8d 76 00             	lea    0x0(%esi),%esi
        cons_intr(serial_proc_data);
  1007b0:	83 ec 0c             	sub    $0xc,%esp
  1007b3:	8d 83 4c f7 fe ff    	lea    -0x108b4(%ebx),%eax
  1007b9:	50                   	push   %eax
  1007ba:	e8 31 fc ff ff       	call   1003f0 <cons_intr>
}
  1007bf:	83 c4 10             	add    $0x10,%esp
  1007c2:	83 c4 08             	add    $0x8,%esp
  1007c5:	5b                   	pop    %ebx
  1007c6:	c3                   	ret
  1007c7:	2e 8d b4 26 00 00 00 	lea    %cs:0x0(%esi,%eiz,1),%esi
  1007ce:	00 
  1007cf:	90                   	nop

001007d0 <serial_putc>:
    } else
        return 0;
}

void serial_putc(char c)
{
  1007d0:	57                   	push   %edi
  1007d1:	56                   	push   %esi
    if (!serial_exists)
        return;

    int i;
    for (i = 0; !(inb(COM1 + COM_LSR) & COM_LSR_TXRDY) && i < 12800; i++)
  1007d2:	31 f6                	xor    %esi,%esi
{
  1007d4:	53                   	push   %ebx
  1007d5:	8b 7c 24 10          	mov    0x10(%esp),%edi
  1007d9:	e8 c4 fb ff ff       	call   1003a2 <__x86.get_pc_thunk.bx>
  1007de:	81 c3 16 08 01 00    	add    $0x10816,%ebx
    if (!serial_exists)
  1007e4:	80 bb 4c 76 02 00 00 	cmpb   $0x0,0x2764c(%ebx)
  1007eb:	75 42                	jne    10082f <serial_putc+0x5f>
  1007ed:	eb 6e                	jmp    10085d <serial_putc+0x8d>
  1007ef:	90                   	nop
    for (i = 0; !(inb(COM1 + COM_LSR) & COM_LSR_TXRDY) && i < 12800; i++)
  1007f0:	81 fe 00 32 00 00    	cmp    $0x3200,%esi
  1007f6:	74 4b                	je     100843 <serial_putc+0x73>
    inb(0x84);
  1007f8:	83 ec 0c             	sub    $0xc,%esp
    for (i = 0; !(inb(COM1 + COM_LSR) & COM_LSR_TXRDY) && i < 12800; i++)
  1007fb:	83 c6 01             	add    $0x1,%esi
    inb(0x84);
  1007fe:	68 84 00 00 00       	push   $0x84
  100803:	e8 48 47 00 00       	call   104f50 <inb>
    inb(0x84);
  100808:	c7 04 24 84 00 00 00 	movl   $0x84,(%esp)
  10080f:	e8 3c 47 00 00       	call   104f50 <inb>
    inb(0x84);
  100814:	c7 04 24 84 00 00 00 	movl   $0x84,(%esp)
  10081b:	e8 30 47 00 00       	call   104f50 <inb>
    inb(0x84);
  100820:	c7 04 24 84 00 00 00 	movl   $0x84,(%esp)
  100827:	e8 24 47 00 00       	call   104f50 <inb>
    for (i = 0; !(inb(COM1 + COM_LSR) & COM_LSR_TXRDY) && i < 12800; i++)
  10082c:	83 c4 10             	add    $0x10,%esp
  10082f:	83 ec 0c             	sub    $0xc,%esp
  100832:	68 fd 03 00 00       	push   $0x3fd
  100837:	e8 14 47 00 00       	call   104f50 <inb>
  10083c:	83 c4 10             	add    $0x10,%esp
  10083f:	a8 20                	test   $0x20,%al
  100841:	74 ad                	je     1007f0 <serial_putc+0x20>
    if (c == nl) {
  100843:	89 f8                	mov    %edi,%eax
  100845:	3c 0a                	cmp    $0xa,%al
  100847:	74 1f                	je     100868 <serial_putc+0x98>
        delay();

    if (!serial_reformatnewline(c, COM1 + COM_TX))
        outb(COM1 + COM_TX, c);
  100849:	83 ec 08             	sub    $0x8,%esp
  10084c:	0f b6 f8             	movzbl %al,%edi
  10084f:	57                   	push   %edi
  100850:	68 f8 03 00 00       	push   $0x3f8
  100855:	e8 26 47 00 00       	call   104f80 <outb>
  10085a:	83 c4 10             	add    $0x10,%esp
}
  10085d:	5b                   	pop    %ebx
  10085e:	5e                   	pop    %esi
  10085f:	5f                   	pop    %edi
  100860:	c3                   	ret
  100861:	8d b4 26 00 00 00 00 	lea    0x0(%esi,%eiz,1),%esi
        outb(p, cr);
  100868:	83 ec 08             	sub    $0x8,%esp
  10086b:	6a 0d                	push   $0xd
  10086d:	68 f8 03 00 00       	push   $0x3f8
  100872:	e8 09 47 00 00       	call   104f80 <outb>
        outb(p, nl);
  100877:	58                   	pop    %eax
  100878:	5a                   	pop    %edx
  100879:	6a 0a                	push   $0xa
  10087b:	68 f8 03 00 00       	push   $0x3f8
  100880:	e8 fb 46 00 00       	call   104f80 <outb>
  100885:	83 c4 10             	add    $0x10,%esp
}
  100888:	5b                   	pop    %ebx
  100889:	5e                   	pop    %esi
  10088a:	5f                   	pop    %edi
  10088b:	c3                   	ret
  10088c:	8d 74 26 00          	lea    0x0(%esi,%eiz,1),%esi

00100890 <serial_init>:

void serial_init(void)
{
  100890:	53                   	push   %ebx
  100891:	e8 0c fb ff ff       	call   1003a2 <__x86.get_pc_thunk.bx>
  100896:	81 c3 5e 07 01 00    	add    $0x1075e,%ebx
  10089c:	83 ec 10             	sub    $0x10,%esp
    /* turn off interrupt */
    outb(COM1 + COM_IER, 0);
  10089f:	6a 00                	push   $0x0
  1008a1:	68 f9 03 00 00       	push   $0x3f9
  1008a6:	e8 d5 46 00 00       	call   104f80 <outb>

    /* set DLAB */
    outb(COM1 + COM_LCR, COM_LCR_DLAB);
  1008ab:	58                   	pop    %eax
  1008ac:	5a                   	pop    %edx
  1008ad:	68 80 00 00 00       	push   $0x80
  1008b2:	68 fb 03 00 00       	push   $0x3fb
  1008b7:	e8 c4 46 00 00       	call   104f80 <outb>

    /* set baud rate */
    outb(COM1 + COM_DLL, 0x0001 & 0xff);
  1008bc:	59                   	pop    %ecx
  1008bd:	58                   	pop    %eax
  1008be:	6a 01                	push   $0x1
  1008c0:	68 f8 03 00 00       	push   $0x3f8
  1008c5:	e8 b6 46 00 00       	call   104f80 <outb>
    outb(COM1 + COM_DLM, 0x0001 >> 8);
  1008ca:	58                   	pop    %eax
  1008cb:	5a                   	pop    %edx
  1008cc:	6a 00                	push   $0x0
  1008ce:	68 f9 03 00 00       	push   $0x3f9
  1008d3:	e8 a8 46 00 00       	call   104f80 <outb>

    /* Set the line status. */
    outb(COM1 + COM_LCR, COM_LCR_WLEN8 & ~COM_LCR_DLAB);
  1008d8:	59                   	pop    %ecx
  1008d9:	58                   	pop    %eax
  1008da:	6a 03                	push   $0x3
  1008dc:	68 fb 03 00 00       	push   $0x3fb
  1008e1:	e8 9a 46 00 00       	call   104f80 <outb>

    /* Enable the FIFO. */
    outb(COM1 + COM_FCR, 0xc7);
  1008e6:	58                   	pop    %eax
  1008e7:	5a                   	pop    %edx
  1008e8:	68 c7 00 00 00       	push   $0xc7
  1008ed:	68 fa 03 00 00       	push   $0x3fa
  1008f2:	e8 89 46 00 00       	call   104f80 <outb>

    /* Turn on DTR, RTS, and OUT2. */
    outb(COM1 + COM_MCR, 0x0b);
  1008f7:	59                   	pop    %ecx
  1008f8:	58                   	pop    %eax
  1008f9:	6a 0b                	push   $0xb
  1008fb:	68 fc 03 00 00       	push   $0x3fc
  100900:	e8 7b 46 00 00       	call   104f80 <outb>

    // Clear any preexisting overrun indications and interrupts
    // Serial COM1 doesn't exist if COM_LSR returns 0xFF
    serial_exists = (inb(COM1 + COM_LSR) != 0xFF);
  100905:	c7 04 24 fd 03 00 00 	movl   $0x3fd,(%esp)
  10090c:	e8 3f 46 00 00       	call   104f50 <inb>
    (void) inb(COM1 + COM_IIR);
  100911:	c7 04 24 fa 03 00 00 	movl   $0x3fa,(%esp)
    serial_exists = (inb(COM1 + COM_LSR) != 0xFF);
  100918:	3c ff                	cmp    $0xff,%al
  10091a:	0f 95 83 4c 76 02 00 	setne  0x2764c(%ebx)
    (void) inb(COM1 + COM_IIR);
  100921:	e8 2a 46 00 00       	call   104f50 <inb>
    (void) inb(COM1 + COM_RX);
  100926:	c7 04 24 f8 03 00 00 	movl   $0x3f8,(%esp)
  10092d:	e8 1e 46 00 00       	call   104f50 <inb>
}
  100932:	83 c4 18             	add    $0x18,%esp
  100935:	5b                   	pop    %ebx
  100936:	c3                   	ret
  100937:	2e 8d b4 26 00 00 00 	lea    %cs:0x0(%esi,%eiz,1),%esi
  10093e:	00 
  10093f:	90                   	nop

00100940 <serial_intenable>:

void serial_intenable(void)
{
  100940:	53                   	push   %ebx
  100941:	e8 5c fa ff ff       	call   1003a2 <__x86.get_pc_thunk.bx>
  100946:	81 c3 ae 06 01 00    	add    $0x106ae,%ebx
  10094c:	83 ec 08             	sub    $0x8,%esp
    if (serial_exists) {
  10094f:	80 bb 4c 76 02 00 00 	cmpb   $0x0,0x2764c(%ebx)
  100956:	75 08                	jne    100960 <serial_intenable+0x20>
        outb(COM1 + COM_IER, 1);
        serial_intr();
    }
}
  100958:	83 c4 08             	add    $0x8,%esp
  10095b:	5b                   	pop    %ebx
  10095c:	c3                   	ret
  10095d:	8d 76 00             	lea    0x0(%esi),%esi
        outb(COM1 + COM_IER, 1);
  100960:	83 ec 08             	sub    $0x8,%esp
  100963:	6a 01                	push   $0x1
  100965:	68 f9 03 00 00       	push   $0x3f9
  10096a:	e8 11 46 00 00       	call   104f80 <outb>
    if (serial_exists)
  10096f:	83 c4 10             	add    $0x10,%esp
  100972:	80 bb 4c 76 02 00 00 	cmpb   $0x0,0x2764c(%ebx)
  100979:	74 dd                	je     100958 <serial_intenable+0x18>
        cons_intr(serial_proc_data);
  10097b:	83 ec 0c             	sub    $0xc,%esp
  10097e:	8d 83 4c f7 fe ff    	lea    -0x108b4(%ebx),%eax
  100984:	50                   	push   %eax
  100985:	e8 66 fa ff ff       	call   1003f0 <cons_intr>
}
  10098a:	83 c4 10             	add    $0x10,%esp
}
  10098d:	83 c4 08             	add    $0x8,%esp
  100990:	5b                   	pop    %ebx
  100991:	c3                   	ret
  100992:	66 90                	xchg   %ax,%ax
  100994:	66 90                	xchg   %ax,%ax
  100996:	66 90                	xchg   %ax,%ax
  100998:	66 90                	xchg   %ax,%ax
  10099a:	66 90                	xchg   %ax,%ax
  10099c:	66 90                	xchg   %ax,%ax
  10099e:	66 90                	xchg   %ax,%ax

001009a0 <kbd_proc_data>:
/*
 * Get data from the keyboard. If we finish a character, return it. Else 0.
 * Return -1 if no data.
 */
static int kbd_proc_data(void)
{
  1009a0:	56                   	push   %esi
  1009a1:	53                   	push   %ebx
  1009a2:	e8 fb f9 ff ff       	call   1003a2 <__x86.get_pc_thunk.bx>
  1009a7:	81 c3 4d 06 01 00    	add    $0x1064d,%ebx
  1009ad:	83 ec 10             	sub    $0x10,%esp
    int c;
    uint8_t data;
    static uint32_t shift;

    if ((inb(KBSTATP) & KBS_DIB) == 0)
  1009b0:	6a 64                	push   $0x64
  1009b2:	e8 99 45 00 00       	call   104f50 <inb>
  1009b7:	83 c4 10             	add    $0x10,%esp
  1009ba:	a8 01                	test   $0x1,%al
  1009bc:	0f 84 26 01 00 00    	je     100ae8 <kbd_proc_data+0x148>
        return -1;

    data = inb(KBDATAP);
  1009c2:	83 ec 0c             	sub    $0xc,%esp
  1009c5:	6a 60                	push   $0x60
  1009c7:	e8 84 45 00 00       	call   104f50 <inb>

    if (data == 0xE0) {
  1009cc:	83 c4 10             	add    $0x10,%esp
  1009cf:	3c e0                	cmp    $0xe0,%al
  1009d1:	0f 84 89 00 00 00    	je     100a60 <kbd_proc_data+0xc0>
        // E0 escape character
        shift |= E0ESC;
  1009d7:	8b 8b 50 76 02 00    	mov    0x27650(%ebx),%ecx
        return 0;
    } else if (data & 0x80) {
        // Key released
        data = (shift & E0ESC ? data : data & 0x7F);
  1009dd:	89 ca                	mov    %ecx,%edx
  1009df:	83 e2 40             	and    $0x40,%edx
    } else if (data & 0x80) {
  1009e2:	84 c0                	test   %al,%al
  1009e4:	0f 88 8e 00 00 00    	js     100a78 <kbd_proc_data+0xd8>
        shift &= ~(shiftcode[data] | E0ESC);
        return 0;
    } else if (shift & E0ESC) {
  1009ea:	85 d2                	test   %edx,%edx
  1009ec:	74 06                	je     1009f4 <kbd_proc_data+0x54>
        // Last character was an E0 escape; or with 0x80
        data |= 0x80;
  1009ee:	83 c8 80             	or     $0xffffff80,%eax
        shift &= ~E0ESC;
  1009f1:	83 e1 bf             	and    $0xffffffbf,%ecx
    }

    shift |= shiftcode[data];
  1009f4:	0f b6 c0             	movzbl %al,%eax
  1009f7:	0f b6 94 03 cc 88 ff 	movzbl -0x7734(%ebx,%eax,1),%edx
  1009fe:	ff 
  1009ff:	09 ca                	or     %ecx,%edx
    shift ^= togglecode[data];
  100a01:	0f b6 8c 03 cc 87 ff 	movzbl -0x7834(%ebx,%eax,1),%ecx
  100a08:	ff 
  100a09:	31 ca                	xor    %ecx,%edx

    c = charcode[shift & (CTL | SHIFT)][data];
  100a0b:	89 d1                	mov    %edx,%ecx
    shift ^= togglecode[data];
  100a0d:	89 93 50 76 02 00    	mov    %edx,0x27650(%ebx)
    c = charcode[shift & (CTL | SHIFT)][data];
  100a13:	83 e1 03             	and    $0x3,%ecx
  100a16:	8b 8c 8b d8 ff ff ff 	mov    -0x28(%ebx,%ecx,4),%ecx
  100a1d:	0f b6 34 01          	movzbl (%ecx,%eax,1),%esi
    if (shift & CAPSLOCK) {
  100a21:	f6 c2 08             	test   $0x8,%dl
  100a24:	75 22                	jne    100a48 <kbd_proc_data+0xa8>
        else if ('A' <= c && c <= 'Z')
            c += 'a' - 'A';
    }
    // Process special keys
    // Ctrl-Alt-Del: reboot
    if (!(~shift & (CTL | ALT)) && c == KEY_DEL) {
  100a26:	f7 d2                	not    %edx
  100a28:	83 e2 06             	and    $0x6,%edx
  100a2b:	75 0c                	jne    100a39 <kbd_proc_data+0x99>
  100a2d:	81 fe e9 00 00 00    	cmp    $0xe9,%esi
  100a33:	0f 84 87 00 00 00    	je     100ac0 <kbd_proc_data+0x120>
        dprintf("Rebooting!\n");
        outb(0x92, 0x3);  // courtesy of Chris Frost
    }

    return c;
}
  100a39:	83 c4 04             	add    $0x4,%esp
  100a3c:	89 f0                	mov    %esi,%eax
  100a3e:	5b                   	pop    %ebx
  100a3f:	5e                   	pop    %esi
  100a40:	c3                   	ret
  100a41:	8d b4 26 00 00 00 00 	lea    0x0(%esi,%eiz,1),%esi
        if ('a' <= c && c <= 'z')
  100a48:	8d 46 9f             	lea    -0x61(%esi),%eax
  100a4b:	83 f8 19             	cmp    $0x19,%eax
  100a4e:	77 58                	ja     100aa8 <kbd_proc_data+0x108>
            c += 'A' - 'a';
  100a50:	83 ee 20             	sub    $0x20,%esi
}
  100a53:	83 c4 04             	add    $0x4,%esp
  100a56:	89 f0                	mov    %esi,%eax
  100a58:	5b                   	pop    %ebx
  100a59:	5e                   	pop    %esi
  100a5a:	c3                   	ret
  100a5b:	2e 8d 74 26 00       	lea    %cs:0x0(%esi,%eiz,1),%esi
        shift |= E0ESC;
  100a60:	83 8b 50 76 02 00 40 	orl    $0x40,0x27650(%ebx)
        return 0;
  100a67:	31 f6                	xor    %esi,%esi
}
  100a69:	83 c4 04             	add    $0x4,%esp
  100a6c:	89 f0                	mov    %esi,%eax
  100a6e:	5b                   	pop    %ebx
  100a6f:	5e                   	pop    %esi
  100a70:	c3                   	ret
  100a71:	8d b4 26 00 00 00 00 	lea    0x0(%esi,%eiz,1),%esi
        data = (shift & E0ESC ? data : data & 0x7F);
  100a78:	89 c6                	mov    %eax,%esi
  100a7a:	83 e6 7f             	and    $0x7f,%esi
  100a7d:	85 d2                	test   %edx,%edx
  100a7f:	0f 44 c6             	cmove  %esi,%eax
        return 0;
  100a82:	31 f6                	xor    %esi,%esi
        shift &= ~(shiftcode[data] | E0ESC);
  100a84:	0f b6 c0             	movzbl %al,%eax
  100a87:	0f b6 84 03 cc 88 ff 	movzbl -0x7734(%ebx,%eax,1),%eax
  100a8e:	ff 
  100a8f:	83 c8 40             	or     $0x40,%eax
  100a92:	0f b6 c0             	movzbl %al,%eax
  100a95:	f7 d0                	not    %eax
  100a97:	21 c8                	and    %ecx,%eax
  100a99:	89 83 50 76 02 00    	mov    %eax,0x27650(%ebx)
        return 0;
  100a9f:	eb c8                	jmp    100a69 <kbd_proc_data+0xc9>
  100aa1:	8d b4 26 00 00 00 00 	lea    0x0(%esi,%eiz,1),%esi
        else if ('A' <= c && c <= 'Z')
  100aa8:	8d 4e bf             	lea    -0x41(%esi),%ecx
            c += 'a' - 'A';
  100aab:	8d 46 20             	lea    0x20(%esi),%eax
  100aae:	83 f9 1a             	cmp    $0x1a,%ecx
  100ab1:	0f 42 f0             	cmovb  %eax,%esi
  100ab4:	e9 6d ff ff ff       	jmp    100a26 <kbd_proc_data+0x86>
  100ab9:	8d b4 26 00 00 00 00 	lea    0x0(%esi,%eiz,1),%esi
        dprintf("Rebooting!\n");
  100ac0:	83 ec 0c             	sub    $0xc,%esp
  100ac3:	8d 83 2a 80 ff ff    	lea    -0x7fd6(%ebx),%eax
  100ac9:	50                   	push   %eax
  100aca:	e8 01 39 00 00       	call   1043d0 <dprintf>
        outb(0x92, 0x3);  // courtesy of Chris Frost
  100acf:	58                   	pop    %eax
  100ad0:	5a                   	pop    %edx
  100ad1:	6a 03                	push   $0x3
  100ad3:	68 92 00 00 00       	push   $0x92
  100ad8:	e8 a3 44 00 00       	call   104f80 <outb>
  100add:	83 c4 10             	add    $0x10,%esp
  100ae0:	e9 54 ff ff ff       	jmp    100a39 <kbd_proc_data+0x99>
  100ae5:	8d 76 00             	lea    0x0(%esi),%esi
        return -1;
  100ae8:	be ff ff ff ff       	mov    $0xffffffff,%esi
  100aed:	e9 47 ff ff ff       	jmp    100a39 <kbd_proc_data+0x99>
  100af2:	2e 8d b4 26 00 00 00 	lea    %cs:0x0(%esi,%eiz,1),%esi
  100af9:	00 
  100afa:	8d b6 00 00 00 00    	lea    0x0(%esi),%esi

00100b00 <keyboard_intr>:

void keyboard_intr(void)
{
  100b00:	53                   	push   %ebx
  100b01:	e8 9c f8 ff ff       	call   1003a2 <__x86.get_pc_thunk.bx>
  100b06:	81 c3 ee 04 01 00    	add    $0x104ee,%ebx
  100b0c:	83 ec 14             	sub    $0x14,%esp
    cons_intr(kbd_proc_data);
  100b0f:	8d 83 ac f9 fe ff    	lea    -0x10654(%ebx),%eax
  100b15:	50                   	push   %eax
  100b16:	e8 d5 f8 ff ff       	call   1003f0 <cons_intr>
}
  100b1b:	83 c4 18             	add    $0x18,%esp
  100b1e:	5b                   	pop    %ebx
  100b1f:	c3                   	ret

00100b20 <devinit>:
#include "tsc.h"

void intr_init(void);

void devinit(uintptr_t mbi_addr)
{
  100b20:	56                   	push   %esi
  100b21:	53                   	push   %ebx
  100b22:	e8 7b f8 ff ff       	call   1003a2 <__x86.get_pc_thunk.bx>
  100b27:	81 c3 cd 04 01 00    	add    $0x104cd,%ebx
  100b2d:	83 ec 10             	sub    $0x10,%esp
  100b30:	8b 74 24 1c          	mov    0x1c(%esp),%esi
    seg_init(0);
  100b34:	6a 00                	push   $0x0
  100b36:	e8 e5 3e 00 00       	call   104a20 <seg_init>

    enable_sse();
  100b3b:	e8 c0 42 00 00       	call   104e00 <enable_sse>

    cons_init();
  100b40:	e8 6b f8 ff ff       	call   1003b0 <cons_init>

    debug_init();
  100b45:	e8 56 35 00 00       	call   1040a0 <debug_init>
    KERN_INFO("[BSP KERN] cons initialized.\n");
  100b4a:	8d 83 36 80 ff ff    	lea    -0x7fca(%ebx),%eax
  100b50:	89 04 24             	mov    %eax,(%esp)
  100b53:	e8 68 35 00 00       	call   1040c0 <debug_info>
    KERN_INFO("[BSP KERN] devinit mbi_addr: %d\n", mbi_addr);
  100b58:	58                   	pop    %eax
  100b59:	8d 83 cc 89 ff ff    	lea    -0x7634(%ebx),%eax
  100b5f:	5a                   	pop    %edx
  100b60:	56                   	push   %esi
  100b61:	50                   	push   %eax
  100b62:	e8 59 35 00 00       	call   1040c0 <debug_info>

    /* pcpu init codes */
    pcpu_init();
  100b67:	e8 b4 51 00 00       	call   105d20 <pcpu_init>
    KERN_INFO("[BSP KERN] PCPU initialized\n");
  100b6c:	8d 83 54 80 ff ff    	lea    -0x7fac(%ebx),%eax
  100b72:	89 04 24             	mov    %eax,(%esp)
  100b75:	e8 46 35 00 00       	call   1040c0 <debug_info>

    tsc_init();
  100b7a:	e8 c1 11 00 00       	call   101d40 <tsc_init>
    KERN_INFO("[BSP KERN] TSC initialized\n");
  100b7f:	8d 83 71 80 ff ff    	lea    -0x7f8f(%ebx),%eax
  100b85:	89 04 24             	mov    %eax,(%esp)
  100b88:	e8 33 35 00 00       	call   1040c0 <debug_info>

    intr_init();
  100b8d:	e8 ee 06 00 00       	call   101280 <intr_init>
    KERN_INFO("[BSP KERN] INTR initialized\n");
  100b92:	8d 83 8d 80 ff ff    	lea    -0x7f73(%ebx),%eax
  100b98:	89 04 24             	mov    %eax,(%esp)
  100b9b:	e8 20 35 00 00       	call   1040c0 <debug_info>

    trap_init(0);
  100ba0:	c7 04 24 00 00 00 00 	movl   $0x0,(%esp)
  100ba7:	e8 34 75 00 00       	call   1080e0 <trap_init>

    pmmap_init(mbi_addr);
  100bac:	89 34 24             	mov    %esi,(%esp)
  100baf:	e8 3c 01 00 00       	call   100cf0 <pmmap_init>
}
  100bb4:	83 c4 14             	add    $0x14,%esp
  100bb7:	5b                   	pop    %ebx
  100bb8:	5e                   	pop    %esi
  100bb9:	c3                   	ret
  100bba:	8d b6 00 00 00 00    	lea    0x0(%esi),%esi

00100bc0 <devinit_ap>:

void devinit_ap(void)
{
  100bc0:	56                   	push   %esi
  100bc1:	53                   	push   %ebx
  100bc2:	e8 db f7 ff ff       	call   1003a2 <__x86.get_pc_thunk.bx>
  100bc7:	81 c3 2d 04 01 00    	add    $0x1042d,%ebx
  100bcd:	83 ec 04             	sub    $0x4,%esp
    /* Figure out the current (booting) kernel stack) */
    struct kstack *ks = (struct kstack *) ROUNDDOWN(read_esp(), KSTACK_SIZE);
  100bd0:	e8 5b 41 00 00       	call   104d30 <read_esp>

    KERN_ASSERT(ks != NULL);
  100bd5:	25 00 f0 ff ff       	and    $0xfffff000,%eax
  100bda:	89 c6                	mov    %eax,%esi
  100bdc:	74 6a                	je     100c48 <devinit_ap+0x88>
    KERN_ASSERT(1 <= ks->cpu_idx && ks->cpu_idx < 8);
  100bde:	8b 86 1c 01 00 00    	mov    0x11c(%esi),%eax
  100be4:	8d 50 ff             	lea    -0x1(%eax),%edx
  100be7:	83 fa 06             	cmp    $0x6,%edx
  100bea:	0f 87 89 00 00 00    	ja     100c79 <devinit_ap+0xb9>

    /* kernel stack for this cpu initialized */
    seg_init(ks->cpu_idx);
  100bf0:	83 ec 0c             	sub    $0xc,%esp
  100bf3:	50                   	push   %eax
  100bf4:	e8 27 3e 00 00       	call   104a20 <seg_init>

    pcpu_init();
  100bf9:	e8 22 51 00 00       	call   105d20 <pcpu_init>
    KERN_INFO("[AP%d KERN] PCPU initialized\n", ks->cpu_idx);
  100bfe:	58                   	pop    %eax
  100bff:	8d 83 e5 80 ff ff    	lea    -0x7f1b(%ebx),%eax
  100c05:	5a                   	pop    %edx
  100c06:	ff b6 1c 01 00 00    	push   0x11c(%esi)
  100c0c:	50                   	push   %eax
  100c0d:	e8 ae 34 00 00       	call   1040c0 <debug_info>

    intr_init();
  100c12:	e8 69 06 00 00       	call   101280 <intr_init>
    KERN_INFO("[AP%d KERN] INTR initialized.\n", ks->cpu_idx);
  100c17:	59                   	pop    %ecx
  100c18:	58                   	pop    %eax
  100c19:	8d 83 14 8a ff ff    	lea    -0x75ec(%ebx),%eax
  100c1f:	ff b6 1c 01 00 00    	push   0x11c(%esi)
  100c25:	50                   	push   %eax
  100c26:	e8 95 34 00 00       	call   1040c0 <debug_info>

    trap_init(ks->cpu_idx);
  100c2b:	58                   	pop    %eax
  100c2c:	ff b6 1c 01 00 00    	push   0x11c(%esi)
  100c32:	e8 a9 74 00 00       	call   1080e0 <trap_init>

    paging_init_ap();
  100c37:	e8 84 61 00 00       	call   106dc0 <paging_init_ap>
}
  100c3c:	83 c4 14             	add    $0x14,%esp
  100c3f:	5b                   	pop    %ebx
  100c40:	5e                   	pop    %esi
  100c41:	c3                   	ret
  100c42:	8d b6 00 00 00 00    	lea    0x0(%esi),%esi
    KERN_ASSERT(ks != NULL);
  100c48:	8d 83 aa 80 ff ff    	lea    -0x7f56(%ebx),%eax
  100c4e:	50                   	push   %eax
  100c4f:	8d 83 b5 80 ff ff    	lea    -0x7f4b(%ebx),%eax
  100c55:	50                   	push   %eax
  100c56:	8d 83 d2 80 ff ff    	lea    -0x7f2e(%ebx),%eax
  100c5c:	6a 31                	push   $0x31
  100c5e:	50                   	push   %eax
  100c5f:	e8 fc 34 00 00       	call   104160 <debug_panic>
    KERN_ASSERT(1 <= ks->cpu_idx && ks->cpu_idx < 8);
  100c64:	8b 86 1c 01 00 00    	mov    0x11c(%esi),%eax
    KERN_ASSERT(ks != NULL);
  100c6a:	83 c4 10             	add    $0x10,%esp
    KERN_ASSERT(1 <= ks->cpu_idx && ks->cpu_idx < 8);
  100c6d:	8d 50 ff             	lea    -0x1(%eax),%edx
  100c70:	83 fa 06             	cmp    $0x6,%edx
  100c73:	0f 86 77 ff ff ff    	jbe    100bf0 <devinit_ap+0x30>
  100c79:	8d 83 f0 89 ff ff    	lea    -0x7610(%ebx),%eax
  100c7f:	50                   	push   %eax
  100c80:	8d 83 b5 80 ff ff    	lea    -0x7f4b(%ebx),%eax
  100c86:	50                   	push   %eax
  100c87:	8d 83 d2 80 ff ff    	lea    -0x7f2e(%ebx),%eax
  100c8d:	6a 32                	push   $0x32
  100c8f:	50                   	push   %eax
  100c90:	e8 cb 34 00 00       	call   104160 <debug_panic>
    seg_init(ks->cpu_idx);
  100c95:	8b 86 1c 01 00 00    	mov    0x11c(%esi),%eax
  100c9b:	83 c4 10             	add    $0x10,%esp
  100c9e:	e9 4d ff ff ff       	jmp    100bf0 <devinit_ap+0x30>
  100ca3:	66 90                	xchg   %ax,%ax
  100ca5:	66 90                	xchg   %ax,%ax
  100ca7:	66 90                	xchg   %ax,%ax
  100ca9:	66 90                	xchg   %ax,%ax
  100cab:	66 90                	xchg   %ax,%ax
  100cad:	66 90                	xchg   %ax,%ax
  100caf:	90                   	nop

00100cb0 <pmmap_alloc_slot>:
    if (unlikely(pmmap_slots_next_free == 128))
  100cb0:	e8 e9 f6 ff ff       	call   10039e <__x86.get_pc_thunk.dx>
  100cb5:	81 c2 3f 03 01 00    	add    $0x1033f,%edx
  100cbb:	8b 82 88 76 02 00    	mov    0x27688(%edx),%eax
  100cc1:	3d 80 00 00 00       	cmp    $0x80,%eax
  100cc6:	74 18                	je     100ce0 <pmmap_alloc_slot+0x30>
    return &pmmap_slots[pmmap_slots_next_free++];
  100cc8:	8d 48 01             	lea    0x1(%eax),%ecx
  100ccb:	8d 04 80             	lea    (%eax,%eax,4),%eax
  100cce:	89 8a 88 76 02 00    	mov    %ecx,0x27688(%edx)
  100cd4:	8d 84 82 8c 76 02 00 	lea    0x2768c(%edx,%eax,4),%eax
  100cdb:	c3                   	ret
  100cdc:	8d 74 26 00          	lea    0x0(%esi,%eiz,1),%esi
        return NULL;
  100ce0:	31 c0                	xor    %eax,%eax
}
  100ce2:	c3                   	ret
  100ce3:	2e 8d b4 26 00 00 00 	lea    %cs:0x0(%esi,%eiz,1),%esi
  100cea:	00 
  100ceb:	2e 8d 74 26 00       	lea    %cs:0x0(%esi,%eiz,1),%esi

00100cf0 <pmmap_init>:
                  (slot->type == MEM_NVS) ? "ACPI NVS" : "unknown");
    }
}

void pmmap_init(uintptr_t mbi_addr)
{
  100cf0:	55                   	push   %ebp
  100cf1:	e8 83 05 00 00       	call   101279 <__x86.get_pc_thunk.bp>
  100cf6:	81 c5 fe 02 01 00    	add    $0x102fe,%ebp
  100cfc:	57                   	push   %edi
  100cfd:	56                   	push   %esi
  100cfe:	53                   	push   %ebx
  100cff:	83 ec 58             	sub    $0x58,%esp
    KERN_INFO("\n");
  100d02:	8d 85 59 85 ff ff    	lea    -0x7aa7(%ebp),%eax
{
  100d08:	8b 74 24 6c          	mov    0x6c(%esp),%esi
    KERN_INFO("\n");
  100d0c:	89 eb                	mov    %ebp,%ebx
  100d0e:	50                   	push   %eax
  100d0f:	e8 ac 33 00 00       	call   1040c0 <debug_info>

    mboot_info_t *mbi = (mboot_info_t *) mbi_addr;
    mboot_mmap_t *p = (mboot_mmap_t *) mbi->mmap_addr;
  100d14:	8b 46 30             	mov    0x30(%esi),%eax
    SLIST_INIT(&pmmap_sublist[PMMAP_NVS]);

    /*
     * Copy memory map information from multiboot information mbi to pmmap.
     */
    while ((uintptr_t) p - (uintptr_t) mbi->mmap_addr < mbi->mmap_length) {
  100d17:	8b 76 2c             	mov    0x2c(%esi),%esi
    SLIST_INIT(&pmmap_list);
  100d1a:	c7 85 84 76 02 00 00 	movl   $0x0,0x27684(%ebp)
  100d21:	00 00 00 
    SLIST_INIT(&pmmap_sublist[PMMAP_USABLE]);
  100d24:	c7 85 74 76 02 00 00 	movl   $0x0,0x27674(%ebp)
  100d2b:	00 00 00 
    while ((uintptr_t) p - (uintptr_t) mbi->mmap_addr < mbi->mmap_length) {
  100d2e:	89 74 24 34          	mov    %esi,0x34(%esp)
  100d32:	83 c4 10             	add    $0x10,%esp
    SLIST_INIT(&pmmap_sublist[PMMAP_RESV]);
  100d35:	c7 85 78 76 02 00 00 	movl   $0x0,0x27678(%ebp)
  100d3c:	00 00 00 
    SLIST_INIT(&pmmap_sublist[PMMAP_ACPI]);
  100d3f:	c7 85 7c 76 02 00 00 	movl   $0x0,0x2767c(%ebp)
  100d46:	00 00 00 
    SLIST_INIT(&pmmap_sublist[PMMAP_NVS]);
  100d49:	c7 85 80 76 02 00 00 	movl   $0x0,0x27680(%ebp)
  100d50:	00 00 00 
    while ((uintptr_t) p - (uintptr_t) mbi->mmap_addr < mbi->mmap_length) {
  100d53:	85 f6                	test   %esi,%esi
  100d55:	0f 84 4f 03 00 00    	je     1010aa <pmmap_init+0x3ba>
  100d5b:	ba e8 ff ff ff       	mov    $0xffffffe8,%edx
  100d60:	8d 58 18             	lea    0x18(%eax),%ebx
  100d63:	31 ff                	xor    %edi,%edi
  100d65:	c6 44 24 2f 00       	movb   $0x0,0x2f(%esp)
  100d6a:	29 c2                	sub    %eax,%edx
  100d6c:	89 5c 24 0c          	mov    %ebx,0xc(%esp)
  100d70:	8b b5 88 76 02 00    	mov    0x27688(%ebp),%esi
  100d76:	c6 44 24 14 00       	movb   $0x0,0x14(%esp)
  100d7b:	89 54 24 28          	mov    %edx,0x28(%esp)
  100d7f:	89 7c 24 20          	mov    %edi,0x20(%esp)
  100d83:	2e 8d 74 26 00       	lea    %cs:0x0(%esi,%eiz,1),%esi
        uintptr_t start, end;
        uint32_t type;

        if (p->base_addr_high != 0)  /* ignore address above 4G */
  100d88:	8b 78 08             	mov    0x8(%eax),%edi
  100d8b:	85 ff                	test   %edi,%edi
  100d8d:	0f 85 c5 00 00 00    	jne    100e58 <pmmap_init+0x168>
            goto next;
        else
            start = p->base_addr_low;

        if (p->length_high != 0 || p->length_low >= 0xffffffff - start)
  100d93:	8b 58 10             	mov    0x10(%eax),%ebx
            start = p->base_addr_low;
  100d96:	8b 50 04             	mov    0x4(%eax),%edx
            end = 0xffffffff;
  100d99:	b9 ff ff ff ff       	mov    $0xffffffff,%ecx
        if (p->length_high != 0 || p->length_low >= 0xffffffff - start)
  100d9e:	85 db                	test   %ebx,%ebx
  100da0:	75 0f                	jne    100db1 <pmmap_init+0xc1>
        else
            end = start + p->length_low;
  100da2:	8b 78 0c             	mov    0xc(%eax),%edi
  100da5:	89 d3                	mov    %edx,%ebx
  100da7:	f7 d3                	not    %ebx
  100da9:	01 d7                	add    %edx,%edi
  100dab:	39 58 0c             	cmp    %ebx,0xc(%eax)
  100dae:	0f 42 cf             	cmovb  %edi,%ecx

        type = p->type;
  100db1:	8b 40 14             	mov    0x14(%eax),%eax
  100db4:	89 44 24 10          	mov    %eax,0x10(%esp)
    if (unlikely(pmmap_slots_next_free == 128))
  100db8:	81 fe 80 00 00 00    	cmp    $0x80,%esi
  100dbe:	0f 84 3c f2 ff ff    	je     100000 <pmmap_init.cold>
    return &pmmap_slots[pmmap_slots_next_free++];
  100dc4:	8d 46 01             	lea    0x1(%esi),%eax
  100dc7:	8d 1c b5 00 00 00 00 	lea    0x0(,%esi,4),%ebx
  100dce:	89 44 24 14          	mov    %eax,0x14(%esp)
  100dd2:	8d 04 33             	lea    (%ebx,%esi,1),%eax
  100dd5:	c1 e0 02             	shl    $0x2,%eax
  100dd8:	8d bc 05 8c 76 02 00 	lea    0x2768c(%ebp,%eax,1),%edi
    free_slot->end = end;
  100ddf:	8d 84 05 8c 76 02 00 	lea    0x2768c(%ebp,%eax,1),%eax
  100de6:	89 48 04             	mov    %ecx,0x4(%eax)
    free_slot->type = type;
  100de9:	8b 4c 24 10          	mov    0x10(%esp),%ecx
    return &pmmap_slots[pmmap_slots_next_free++];
  100ded:	89 7c 24 18          	mov    %edi,0x18(%esp)
    free_slot->type = type;
  100df1:	89 48 08             	mov    %ecx,0x8(%eax)
    SLIST_FOREACH(slot, &pmmap_list, next) {
  100df4:	8b 44 24 20          	mov    0x20(%esp),%eax
    free_slot->start = start;
  100df8:	89 17                	mov    %edx,(%edi)
    free_slot->end = end;
  100dfa:	8d 3d 8c 76 02 00    	lea    0x2768c,%edi
  100e00:	89 7c 24 1c          	mov    %edi,0x1c(%esp)
    SLIST_FOREACH(slot, &pmmap_list, next) {
  100e04:	85 c0                	test   %eax,%eax
  100e06:	74 25                	je     100e2d <pmmap_init+0x13d>
    last_slot = NULL;
  100e08:	31 ff                	xor    %edi,%edi
  100e0a:	eb 13                	jmp    100e1f <pmmap_init+0x12f>
  100e0c:	8d 74 26 00          	lea    0x0(%esi,%eiz,1),%esi
    SLIST_FOREACH(slot, &pmmap_list, next) {
  100e10:	8b 48 0c             	mov    0xc(%eax),%ecx
  100e13:	89 c7                	mov    %eax,%edi
  100e15:	85 c9                	test   %ecx,%ecx
  100e17:	0f 84 33 02 00 00    	je     101050 <pmmap_init+0x360>
  100e1d:	89 c8                	mov    %ecx,%eax
        if (start < slot->start)
  100e1f:	3b 10                	cmp    (%eax),%edx
  100e21:	73 ed                	jae    100e10 <pmmap_init+0x120>
    if (last_slot == NULL) {
  100e23:	89 f8                	mov    %edi,%eax
  100e25:	85 ff                	test   %edi,%edi
  100e27:	0f 85 23 02 00 00    	jne    101050 <pmmap_init+0x360>
        SLIST_INSERT_HEAD(&pmmap_list, free_slot, next);
  100e2d:	01 f3                	add    %esi,%ebx
  100e2f:	8b 74 24 1c          	mov    0x1c(%esp),%esi
  100e33:	c6 44 24 2f 01       	movb   $0x1,0x2f(%esp)
  100e38:	8d 44 9d 00          	lea    0x0(%ebp,%ebx,4),%eax
  100e3c:	8b 5c 24 20          	mov    0x20(%esp),%ebx
  100e40:	89 5c 06 0c          	mov    %ebx,0xc(%esi,%eax,1)
  100e44:	8b 44 24 18          	mov    0x18(%esp),%eax
    return &pmmap_slots[pmmap_slots_next_free++];
  100e48:	8b 74 24 14          	mov    0x14(%esp),%esi
  100e4c:	c6 44 24 14 01       	movb   $0x1,0x14(%esp)
        SLIST_INSERT_HEAD(&pmmap_list, free_slot, next);
  100e51:	89 44 24 20          	mov    %eax,0x20(%esp)
  100e55:	8d 76 00             	lea    0x0(%esi),%esi

        pmmap_insert(start, end, type);

      next:
        p = (mboot_mmap_t *) (((uint32_t) p) + sizeof(mboot_mmap_t) /* p->size */);
  100e58:	8b 5c 24 0c          	mov    0xc(%esp),%ebx
    while ((uintptr_t) p - (uintptr_t) mbi->mmap_addr < mbi->mmap_length) {
  100e5c:	8b 7c 24 28          	mov    0x28(%esp),%edi
        p = (mboot_mmap_t *) (((uint32_t) p) + sizeof(mboot_mmap_t) /* p->size */);
  100e60:	89 d8                	mov    %ebx,%eax
    while ((uintptr_t) p - (uintptr_t) mbi->mmap_addr < mbi->mmap_length) {
  100e62:	83 c3 18             	add    $0x18,%ebx
  100e65:	8d 14 1f             	lea    (%edi,%ebx,1),%edx
  100e68:	8b 7c 24 24          	mov    0x24(%esp),%edi
  100e6c:	89 5c 24 0c          	mov    %ebx,0xc(%esp)
  100e70:	39 fa                	cmp    %edi,%edx
  100e72:	0f 82 10 ff ff ff    	jb     100d88 <pmmap_init+0x98>
  100e78:	80 7c 24 2f 00       	cmpb   $0x0,0x2f(%esp)
  100e7d:	8b 7c 24 20          	mov    0x20(%esp),%edi
  100e81:	0f 84 52 02 00 00    	je     1010d9 <pmmap_init+0x3e9>
  100e87:	80 7c 24 14 00       	cmpb   $0x0,0x14(%esp)
  100e8c:	89 bd 84 76 02 00    	mov    %edi,0x27684(%ebp)
  100e92:	74 06                	je     100e9a <pmmap_init+0x1aa>
  100e94:	89 b5 88 76 02 00    	mov    %esi,0x27688(%ebp)
    struct pmmap *last_slot[4] = { NULL, NULL, NULL, NULL };
  100e9a:	c7 44 24 30 00 00 00 	movl   $0x0,0x30(%esp)
  100ea1:	00 
  100ea2:	c7 44 24 34 00 00 00 	movl   $0x0,0x34(%esp)
  100ea9:	00 
  100eaa:	c7 44 24 38 00 00 00 	movl   $0x0,0x38(%esp)
  100eb1:	00 
  100eb2:	c7 44 24 3c 00 00 00 	movl   $0x0,0x3c(%esp)
  100eb9:	00 
    SLIST_FOREACH(slot, &pmmap_list, next) {
  100eba:	85 ff                	test   %edi,%edi
  100ebc:	0f 84 e8 01 00 00    	je     1010aa <pmmap_init+0x3ba>
        if ((next_slot = SLIST_NEXT(slot, next)) == NULL)
  100ec2:	8b 47 0c             	mov    0xc(%edi),%eax
  100ec5:	85 c0                	test   %eax,%eax
  100ec7:	74 29                	je     100ef2 <pmmap_init+0x202>
  100ec9:	8d b4 26 00 00 00 00 	lea    0x0(%esi,%eiz,1),%esi
        if (slot->start <= next_slot->start &&
  100ed0:	8b 10                	mov    (%eax),%edx
  100ed2:	3b 17                	cmp    (%edi),%edx
  100ed4:	72 13                	jb     100ee9 <pmmap_init+0x1f9>
            slot->end >= next_slot->start &&
  100ed6:	8b 4f 04             	mov    0x4(%edi),%ecx
        if (slot->start <= next_slot->start &&
  100ed9:	39 d1                	cmp    %edx,%ecx
  100edb:	72 0c                	jb     100ee9 <pmmap_init+0x1f9>
            slot->end >= next_slot->start &&
  100edd:	8b 70 08             	mov    0x8(%eax),%esi
  100ee0:	39 77 08             	cmp    %esi,0x8(%edi)
  100ee3:	0f 84 36 01 00 00    	je     10101f <pmmap_init+0x32f>
  100ee9:	89 c7                	mov    %eax,%edi
        if ((next_slot = SLIST_NEXT(slot, next)) == NULL)
  100eeb:	8b 47 0c             	mov    0xc(%edi),%eax
  100eee:	85 c0                	test   %eax,%eax
  100ef0:	75 de                	jne    100ed0 <pmmap_init+0x1e0>
    SLIST_FOREACH(slot, &pmmap_list, next) {
  100ef2:	8b b5 84 76 02 00    	mov    0x27684(%ebp),%esi
            SLIST_INSERT_HEAD(&pmmap_sublist[sublist_nr], slot, type_next);
  100ef8:	8d bd 74 76 02 00    	lea    0x27674(%ebp),%edi
    SLIST_FOREACH(slot, &pmmap_list, next) {
  100efe:	85 f6                	test   %esi,%esi
  100f00:	75 2a                	jne    100f2c <pmmap_init+0x23c>
  100f02:	e9 a3 01 00 00       	jmp    1010aa <pmmap_init+0x3ba>
  100f07:	2e 8d b4 26 00 00 00 	lea    %cs:0x0(%esi,%eiz,1),%esi
  100f0e:	00 
  100f0f:	90                   	nop
        if (last_slot[sublist_nr] != NULL)
  100f10:	8b 54 84 30          	mov    0x30(%esp,%eax,4),%edx
  100f14:	85 d2                	test   %edx,%edx
  100f16:	74 4d                	je     100f65 <pmmap_init+0x275>
            SLIST_INSERT_AFTER(last_slot[sublist_nr], slot, type_next);
  100f18:	8b 4a 10             	mov    0x10(%edx),%ecx
        last_slot[sublist_nr] = slot;
  100f1b:	89 74 84 30          	mov    %esi,0x30(%esp,%eax,4)
            SLIST_INSERT_AFTER(last_slot[sublist_nr], slot, type_next);
  100f1f:	89 4e 10             	mov    %ecx,0x10(%esi)
  100f22:	89 72 10             	mov    %esi,0x10(%edx)
    SLIST_FOREACH(slot, &pmmap_list, next) {
  100f25:	8b 76 0c             	mov    0xc(%esi),%esi
  100f28:	85 f6                	test   %esi,%esi
  100f2a:	74 4d                	je     100f79 <pmmap_init+0x289>
        sublist_nr = PMMAP_SUBLIST_NR(slot->type);
  100f2c:	8b 46 08             	mov    0x8(%esi),%eax
  100f2f:	83 e8 01             	sub    $0x1,%eax
  100f32:	83 f8 03             	cmp    $0x3,%eax
  100f35:	76 d9                	jbe    100f10 <pmmap_init+0x220>
        KERN_ASSERT(sublist_nr != -1);
  100f37:	8d 85 5c 81 ff ff    	lea    -0x7ea4(%ebp),%eax
  100f3d:	89 eb                	mov    %ebp,%ebx
  100f3f:	50                   	push   %eax
  100f40:	8d 85 b5 80 ff ff    	lea    -0x7f4b(%ebp),%eax
  100f46:	50                   	push   %eax
  100f47:	8d 85 4b 81 ff ff    	lea    -0x7eb5(%ebp),%eax
  100f4d:	6a 6b                	push   $0x6b
  100f4f:	50                   	push   %eax
  100f50:	e8 0b 32 00 00       	call   104160 <debug_panic>
  100f55:	83 c4 10             	add    $0x10,%esp
        sublist_nr = PMMAP_SUBLIST_NR(slot->type);
  100f58:	b8 ff ff ff ff       	mov    $0xffffffff,%eax
        if (last_slot[sublist_nr] != NULL)
  100f5d:	8b 54 84 30          	mov    0x30(%esp,%eax,4),%edx
  100f61:	85 d2                	test   %edx,%edx
  100f63:	75 b3                	jne    100f18 <pmmap_init+0x228>
            SLIST_INSERT_HEAD(&pmmap_sublist[sublist_nr], slot, type_next);
  100f65:	8b 14 87             	mov    (%edi,%eax,4),%edx
        last_slot[sublist_nr] = slot;
  100f68:	89 74 84 30          	mov    %esi,0x30(%esp,%eax,4)
            SLIST_INSERT_HEAD(&pmmap_sublist[sublist_nr], slot, type_next);
  100f6c:	89 34 87             	mov    %esi,(%edi,%eax,4)
  100f6f:	89 56 10             	mov    %edx,0x10(%esi)
    SLIST_FOREACH(slot, &pmmap_list, next) {
  100f72:	8b 76 0c             	mov    0xc(%esi),%esi
  100f75:	85 f6                	test   %esi,%esi
  100f77:	75 b3                	jne    100f2c <pmmap_init+0x23c>
    if (last_slot[PMMAP_USABLE] != NULL)
  100f79:	8b 44 24 30          	mov    0x30(%esp),%eax
  100f7d:	85 c0                	test   %eax,%eax
  100f7f:	74 09                	je     100f8a <pmmap_init+0x29a>
        max_usable_memory = last_slot[PMMAP_USABLE]->end;
  100f81:	8b 40 04             	mov    0x4(%eax),%eax
  100f84:	89 85 70 76 02 00    	mov    %eax,0x27670(%ebp)
    SLIST_FOREACH(slot, &pmmap_list, next) {
  100f8a:	8b b5 84 76 02 00    	mov    0x27684(%ebp),%esi
  100f90:	85 f6                	test   %esi,%esi
  100f92:	0f 84 12 01 00 00    	je     1010aa <pmmap_init+0x3ba>
        KERN_INFO("BIOS-e820: 0x%08x - 0x%08x (%s)\n",
  100f98:	8d 85 1b 81 ff ff    	lea    -0x7ee5(%ebp),%eax
  100f9e:	8d bd 34 8a ff ff    	lea    -0x75cc(%ebp),%edi
  100fa4:	89 44 24 10          	mov    %eax,0x10(%esp)
  100fa8:	8d 85 25 81 ff ff    	lea    -0x7edb(%ebp),%eax
  100fae:	89 44 24 0c          	mov    %eax,0xc(%esp)
  100fb2:	eb 4d                	jmp    101001 <pmmap_init+0x311>
  100fb4:	8d 74 26 00          	lea    0x0(%esi,%eiz,1),%esi
  100fb8:	8d 95 0b 81 ff ff    	lea    -0x7ef5(%ebp),%edx
  100fbe:	83 f8 01             	cmp    $0x1,%eax
  100fc1:	74 12                	je     100fd5 <pmmap_init+0x2e5>
  100fc3:	83 f8 02             	cmp    $0x2,%eax
  100fc6:	8d 95 03 81 ff ff    	lea    -0x7efd(%ebp),%edx
  100fcc:	8d 85 12 81 ff ff    	lea    -0x7eee(%ebp),%eax
  100fd2:	0f 44 d0             	cmove  %eax,%edx
  100fd5:	8b 0e                	mov    (%esi),%ecx
  100fd7:	8b 46 04             	mov    0x4(%esi),%eax
  100fda:	39 c1                	cmp    %eax,%ecx
  100fdc:	74 0a                	je     100fe8 <pmmap_init+0x2f8>
  100fde:	31 db                	xor    %ebx,%ebx
  100fe0:	83 f8 ff             	cmp    $0xffffffff,%eax
  100fe3:	0f 95 c3             	setne  %bl
  100fe6:	29 d8                	sub    %ebx,%eax
  100fe8:	52                   	push   %edx
  100fe9:	89 eb                	mov    %ebp,%ebx
  100feb:	50                   	push   %eax
  100fec:	51                   	push   %ecx
  100fed:	57                   	push   %edi
  100fee:	e8 cd 30 00 00       	call   1040c0 <debug_info>
    SLIST_FOREACH(slot, &pmmap_list, next) {
  100ff3:	8b 76 0c             	mov    0xc(%esi),%esi
  100ff6:	83 c4 10             	add    $0x10,%esp
  100ff9:	85 f6                	test   %esi,%esi
  100ffb:	0f 84 7f 00 00 00    	je     101080 <pmmap_init+0x390>
        KERN_INFO("BIOS-e820: 0x%08x - 0x%08x (%s)\n",
  101001:	8b 46 08             	mov    0x8(%esi),%eax
  101004:	83 f8 03             	cmp    $0x3,%eax
  101007:	0f 84 c3 00 00 00    	je     1010d0 <pmmap_init+0x3e0>
  10100d:	76 a9                	jbe    100fb8 <pmmap_init+0x2c8>
  10100f:	83 f8 04             	cmp    $0x4,%eax
  101012:	8d 95 03 81 ff ff    	lea    -0x7efd(%ebp),%edx
  101018:	0f 44 54 24 0c       	cmove  0xc(%esp),%edx
  10101d:	eb b6                	jmp    100fd5 <pmmap_init+0x2e5>
            slot->end = max(slot->end, next_slot->end);
  10101f:	83 ec 08             	sub    $0x8,%esp
  101022:	ff 70 04             	push   0x4(%eax)
  101025:	89 eb                	mov    %ebp,%ebx
  101027:	51                   	push   %ecx
  101028:	e8 a3 3c 00 00       	call   104cd0 <max>
    SLIST_FOREACH(slot, &pmmap_list, next) {
  10102d:	83 c4 10             	add    $0x10,%esp
            slot->end = max(slot->end, next_slot->end);
  101030:	89 47 04             	mov    %eax,0x4(%edi)
            SLIST_REMOVE_AFTER(slot, next);
  101033:	8b 47 0c             	mov    0xc(%edi),%eax
  101036:	8b 40 0c             	mov    0xc(%eax),%eax
  101039:	89 47 0c             	mov    %eax,0xc(%edi)
    SLIST_FOREACH(slot, &pmmap_list, next) {
  10103c:	85 c0                	test   %eax,%eax
  10103e:	0f 84 ae fe ff ff    	je     100ef2 <pmmap_init+0x202>
  101044:	89 c7                	mov    %eax,%edi
  101046:	e9 a0 fe ff ff       	jmp    100eeb <pmmap_init+0x1fb>
  10104b:	2e 8d 74 26 00       	lea    %cs:0x0(%esi,%eiz,1),%esi
        SLIST_INSERT_AFTER(last_slot, free_slot, next);
  101050:	8b 48 0c             	mov    0xc(%eax),%ecx
  101053:	01 f3                	add    %esi,%ebx
  101055:	8b 74 24 1c          	mov    0x1c(%esp),%esi
  101059:	8d 54 9d 00          	lea    0x0(%ebp,%ebx,4),%edx
  10105d:	89 4c 16 0c          	mov    %ecx,0xc(%esi,%edx,1)
  101061:	8b 74 24 18          	mov    0x18(%esp),%esi
  101065:	89 70 0c             	mov    %esi,0xc(%eax)
    return &pmmap_slots[pmmap_slots_next_free++];
  101068:	8b 74 24 14          	mov    0x14(%esp),%esi
        SLIST_INSERT_AFTER(last_slot, free_slot, next);
  10106c:	c6 44 24 14 01       	movb   $0x1,0x14(%esp)
  101071:	e9 e2 fd ff ff       	jmp    100e58 <pmmap_init+0x168>
  101076:	2e 8d b4 26 00 00 00 	lea    %cs:0x0(%esi,%eiz,1),%esi
  10107d:	00 
  10107e:	66 90                	xchg   %ax,%ax
    pmmap_merge();
    pmmap_dump();

    /* count the number of pmmap entries */
    struct pmmap *slot;
    SLIST_FOREACH(slot, &pmmap_list, next) {
  101080:	8b 95 84 76 02 00    	mov    0x27684(%ebp),%edx
  101086:	85 d2                	test   %edx,%edx
  101088:	74 20                	je     1010aa <pmmap_init+0x3ba>
  10108a:	8b 85 6c 76 02 00    	mov    0x2766c(%ebp),%eax
  101090:	83 c0 01             	add    $0x1,%eax
  101093:	2e 8d 74 26 00       	lea    %cs:0x0(%esi,%eiz,1),%esi
  101098:	8b 52 0c             	mov    0xc(%edx),%edx
  10109b:	89 c1                	mov    %eax,%ecx
  10109d:	83 c0 01             	add    $0x1,%eax
  1010a0:	85 d2                	test   %edx,%edx
  1010a2:	75 f4                	jne    101098 <pmmap_init+0x3a8>
  1010a4:	89 8d 6c 76 02 00    	mov    %ecx,0x2766c(%ebp)
        pmmap_nentries++;
    }

    /* Calculate the maximum page number */
    mem_npages = rounddown(max_usable_memory, PAGESIZE) / PAGESIZE;
  1010aa:	83 ec 08             	sub    $0x8,%esp
  1010ad:	89 eb                	mov    %ebp,%ebx
  1010af:	68 00 10 00 00       	push   $0x1000
  1010b4:	ff b5 70 76 02 00    	push   0x27670(%ebp)
  1010ba:	e8 31 3c 00 00       	call   104cf0 <rounddown>
}
  1010bf:	83 c4 5c             	add    $0x5c,%esp
  1010c2:	5b                   	pop    %ebx
  1010c3:	5e                   	pop    %esi
  1010c4:	5f                   	pop    %edi
  1010c5:	5d                   	pop    %ebp
  1010c6:	c3                   	ret
  1010c7:	2e 8d b4 26 00 00 00 	lea    %cs:0x0(%esi,%eiz,1),%esi
  1010ce:	00 
  1010cf:	90                   	nop
        KERN_INFO("BIOS-e820: 0x%08x - 0x%08x (%s)\n",
  1010d0:	8b 54 24 10          	mov    0x10(%esp),%edx
  1010d4:	e9 fc fe ff ff       	jmp    100fd5 <pmmap_init+0x2e5>
  1010d9:	80 7c 24 14 00       	cmpb   $0x0,0x14(%esp)
  1010de:	74 ca                	je     1010aa <pmmap_init+0x3ba>
  1010e0:	89 b5 88 76 02 00    	mov    %esi,0x27688(%ebp)
    SLIST_FOREACH(slot, &pmmap_list, next) {
  1010e6:	eb c2                	jmp    1010aa <pmmap_init+0x3ba>
  1010e8:	2e 8d b4 26 00 00 00 	lea    %cs:0x0(%esi,%eiz,1),%esi
  1010ef:	00 

001010f0 <get_size>:

int get_size(void)
{
    return pmmap_nentries;
  1010f0:	e8 a5 f2 ff ff       	call   10039a <__x86.get_pc_thunk.ax>
  1010f5:	05 ff fe 00 00       	add    $0xfeff,%eax
  1010fa:	8b 80 6c 76 02 00    	mov    0x2766c(%eax),%eax
}
  101100:	c3                   	ret
  101101:	2e 8d b4 26 00 00 00 	lea    %cs:0x0(%esi,%eiz,1),%esi
  101108:	00 
  101109:	8d b4 26 00 00 00 00 	lea    0x0(%esi,%eiz,1),%esi

00101110 <get_mms>:

uint32_t get_mms(int idx)
{
  101110:	53                   	push   %ebx
  101111:	8b 4c 24 08          	mov    0x8(%esp),%ecx
  101115:	e8 88 f2 ff ff       	call   1003a2 <__x86.get_pc_thunk.bx>
  10111a:	81 c3 da fe 00 00    	add    $0xfeda,%ebx
    int i = 0;
    struct pmmap *slot = NULL;

    SLIST_FOREACH(slot, &pmmap_list, next) {
  101120:	8b 83 84 76 02 00    	mov    0x27684(%ebx),%eax
  101126:	85 c0                	test   %eax,%eax
  101128:	74 1c                	je     101146 <get_mms+0x36>
    int i = 0;
  10112a:	31 d2                	xor    %edx,%edx
        if (i == idx)
  10112c:	85 c9                	test   %ecx,%ecx
  10112e:	75 0c                	jne    10113c <get_mms+0x2c>
  101130:	eb 1e                	jmp    101150 <get_mms+0x40>
  101132:	8d b6 00 00 00 00    	lea    0x0(%esi),%esi
  101138:	39 d1                	cmp    %edx,%ecx
  10113a:	74 14                	je     101150 <get_mms+0x40>
    SLIST_FOREACH(slot, &pmmap_list, next) {
  10113c:	8b 40 0c             	mov    0xc(%eax),%eax
            break;
        i++;
  10113f:	83 c2 01             	add    $0x1,%edx
    SLIST_FOREACH(slot, &pmmap_list, next) {
  101142:	85 c0                	test   %eax,%eax
  101144:	75 f2                	jne    101138 <get_mms+0x28>
    }

    if (slot == NULL || i == pmmap_nentries)
        return 0;
  101146:	31 c9                	xor    %ecx,%ecx

    return slot->start;
}
  101148:	89 c8                	mov    %ecx,%eax
  10114a:	5b                   	pop    %ebx
  10114b:	c3                   	ret
  10114c:	8d 74 26 00          	lea    0x0(%esi,%eiz,1),%esi
        return 0;
  101150:	31 c9                	xor    %ecx,%ecx
    if (slot == NULL || i == pmmap_nentries)
  101152:	39 93 6c 76 02 00    	cmp    %edx,0x2766c(%ebx)
  101158:	74 ee                	je     101148 <get_mms+0x38>
    return slot->start;
  10115a:	8b 08                	mov    (%eax),%ecx
}
  10115c:	5b                   	pop    %ebx
  10115d:	89 c8                	mov    %ecx,%eax
  10115f:	c3                   	ret

00101160 <get_mml>:

uint32_t get_mml(int idx)
{
  101160:	53                   	push   %ebx
  101161:	8b 44 24 08          	mov    0x8(%esp),%eax
  101165:	e8 38 f2 ff ff       	call   1003a2 <__x86.get_pc_thunk.bx>
  10116a:	81 c3 8a fe 00 00    	add    $0xfe8a,%ebx
    int i = 0;
    struct pmmap *slot = NULL;

    SLIST_FOREACH(slot, &pmmap_list, next) {
  101170:	8b 93 84 76 02 00    	mov    0x27684(%ebx),%edx
  101176:	85 d2                	test   %edx,%edx
  101178:	74 1c                	je     101196 <get_mml+0x36>
    int i = 0;
  10117a:	31 c9                	xor    %ecx,%ecx
        if (i == idx)
  10117c:	85 c0                	test   %eax,%eax
  10117e:	75 0c                	jne    10118c <get_mml+0x2c>
  101180:	eb 1e                	jmp    1011a0 <get_mml+0x40>
  101182:	8d b6 00 00 00 00    	lea    0x0(%esi),%esi
  101188:	39 c8                	cmp    %ecx,%eax
  10118a:	74 14                	je     1011a0 <get_mml+0x40>
    SLIST_FOREACH(slot, &pmmap_list, next) {
  10118c:	8b 52 0c             	mov    0xc(%edx),%edx
            break;
        i++;
  10118f:	83 c1 01             	add    $0x1,%ecx
    SLIST_FOREACH(slot, &pmmap_list, next) {
  101192:	85 d2                	test   %edx,%edx
  101194:	75 f2                	jne    101188 <get_mml+0x28>
    }

    if (slot == NULL || i == pmmap_nentries)
        return 0;
  101196:	31 c0                	xor    %eax,%eax

    return slot->end - slot->start;
}
  101198:	5b                   	pop    %ebx
  101199:	c3                   	ret
  10119a:	8d b6 00 00 00 00    	lea    0x0(%esi),%esi
        return 0;
  1011a0:	31 c0                	xor    %eax,%eax
    if (slot == NULL || i == pmmap_nentries)
  1011a2:	39 8b 6c 76 02 00    	cmp    %ecx,0x2766c(%ebx)
  1011a8:	74 ee                	je     101198 <get_mml+0x38>
    return slot->end - slot->start;
  1011aa:	8b 42 04             	mov    0x4(%edx),%eax
}
  1011ad:	5b                   	pop    %ebx
    return slot->end - slot->start;
  1011ae:	2b 02                	sub    (%edx),%eax
}
  1011b0:	c3                   	ret
  1011b1:	2e 8d b4 26 00 00 00 	lea    %cs:0x0(%esi,%eiz,1),%esi
  1011b8:	00 
  1011b9:	8d b4 26 00 00 00 00 	lea    0x0(%esi,%eiz,1),%esi

001011c0 <is_usable>:

int is_usable(int idx)
{
  1011c0:	53                   	push   %ebx
  1011c1:	8b 4c 24 08          	mov    0x8(%esp),%ecx
  1011c5:	e8 d8 f1 ff ff       	call   1003a2 <__x86.get_pc_thunk.bx>
  1011ca:	81 c3 2a fe 00 00    	add    $0xfe2a,%ebx
    int i = 0;
    struct pmmap *slot = NULL;

    SLIST_FOREACH(slot, &pmmap_list, next) {
  1011d0:	8b 83 84 76 02 00    	mov    0x27684(%ebx),%eax
  1011d6:	85 c0                	test   %eax,%eax
  1011d8:	74 1c                	je     1011f6 <is_usable+0x36>
    int i = 0;
  1011da:	31 d2                	xor    %edx,%edx
        if (i == idx)
  1011dc:	85 c9                	test   %ecx,%ecx
  1011de:	75 0c                	jne    1011ec <is_usable+0x2c>
  1011e0:	eb 1e                	jmp    101200 <is_usable+0x40>
  1011e2:	8d b6 00 00 00 00    	lea    0x0(%esi),%esi
  1011e8:	39 d1                	cmp    %edx,%ecx
  1011ea:	74 14                	je     101200 <is_usable+0x40>
    SLIST_FOREACH(slot, &pmmap_list, next) {
  1011ec:	8b 40 0c             	mov    0xc(%eax),%eax
            break;
        i++;
  1011ef:	83 c2 01             	add    $0x1,%edx
    SLIST_FOREACH(slot, &pmmap_list, next) {
  1011f2:	85 c0                	test   %eax,%eax
  1011f4:	75 f2                	jne    1011e8 <is_usable+0x28>
    }

    if (slot == NULL || i == pmmap_nentries)
        return 0;
  1011f6:	31 c9                	xor    %ecx,%ecx

    return slot->type == MEM_RAM;
}
  1011f8:	89 c8                	mov    %ecx,%eax
  1011fa:	5b                   	pop    %ebx
  1011fb:	c3                   	ret
  1011fc:	8d 74 26 00          	lea    0x0(%esi,%eiz,1),%esi
        return 0;
  101200:	31 c9                	xor    %ecx,%ecx
    if (slot == NULL || i == pmmap_nentries)
  101202:	39 93 6c 76 02 00    	cmp    %edx,0x2766c(%ebx)
  101208:	74 ee                	je     1011f8 <is_usable+0x38>
    return slot->type == MEM_RAM;
  10120a:	31 c9                	xor    %ecx,%ecx
  10120c:	83 78 08 01          	cmpl   $0x1,0x8(%eax)
}
  101210:	5b                   	pop    %ebx
    return slot->type == MEM_RAM;
  101211:	0f 94 c1             	sete   %cl
}
  101214:	89 c8                	mov    %ecx,%eax
  101216:	c3                   	ret
  101217:	2e 8d b4 26 00 00 00 	lea    %cs:0x0(%esi,%eiz,1),%esi
  10121e:	00 
  10121f:	90                   	nop

00101220 <set_cr3>:

void set_cr3(unsigned int **pdir)
{
  101220:	53                   	push   %ebx
  101221:	e8 7c f1 ff ff       	call   1003a2 <__x86.get_pc_thunk.bx>
  101226:	81 c3 ce fd 00 00    	add    $0xfdce,%ebx
  10122c:	83 ec 14             	sub    $0x14,%esp
    lcr3((uint32_t) pdir);
  10122f:	ff 74 24 1c          	push   0x1c(%esp)
  101233:	e8 e8 3c 00 00       	call   104f20 <lcr3>
}
  101238:	83 c4 18             	add    $0x18,%esp
  10123b:	5b                   	pop    %ebx
  10123c:	c3                   	ret
  10123d:	8d 76 00             	lea    0x0(%esi),%esi

00101240 <enable_paging>:

void enable_paging(void)
{
  101240:	53                   	push   %ebx
  101241:	e8 5c f1 ff ff       	call   1003a2 <__x86.get_pc_thunk.bx>
  101246:	81 c3 ae fd 00 00    	add    $0xfdae,%ebx
  10124c:	83 ec 08             	sub    $0x8,%esp
    /* enable global pages (Sec 4.10.2.4, Intel ASDM Vol3) */
    uint32_t cr4 = rcr4();
  10124f:	e8 ec 3c 00 00       	call   104f40 <rcr4>
    cr4 |= CR4_PGE;
    lcr4(cr4);
  101254:	83 ec 0c             	sub    $0xc,%esp
    cr4 |= CR4_PGE;
  101257:	0c 80                	or     $0x80,%al
    lcr4(cr4);
  101259:	50                   	push   %eax
  10125a:	e8 d1 3c 00 00       	call   104f30 <lcr4>

    /* turn on paging */
    uint32_t cr0 = rcr0();
  10125f:	e8 9c 3c 00 00       	call   104f00 <rcr0>
    cr0 |= CR0_PE | CR0_PG | CR0_AM | CR0_WP | CR0_NE | CR0_MP;
    cr0 &= ~(CR0_EM | CR0_TS);
  101264:	83 e0 f3             	and    $0xfffffff3,%eax
  101267:	0d 23 00 05 80       	or     $0x80050023,%eax
    lcr0(cr0);
  10126c:	89 04 24             	mov    %eax,(%esp)
  10126f:	e8 7c 3c 00 00       	call   104ef0 <lcr0>
}
  101274:	83 c4 18             	add    $0x18,%esp
  101277:	5b                   	pop    %ebx
  101278:	c3                   	ret

00101279 <__x86.get_pc_thunk.bp>:
  101279:	8b 2c 24             	mov    (%esp),%ebp
  10127c:	c3                   	ret
  10127d:	66 90                	xchg   %ax,%ax
  10127f:	90                   	nop

00101280 <intr_init>:
{
    asm volatile ("lidt %0" :: "m" (idt_pd));
}

void intr_init(void)
{
  101280:	55                   	push   %ebp
  101281:	57                   	push   %edi
  101282:	56                   	push   %esi
  101283:	53                   	push   %ebx
  101284:	e8 19 f1 ff ff       	call   1003a2 <__x86.get_pc_thunk.bx>
  101289:	81 c3 6b fd 00 00    	add    $0xfd6b,%ebx
  10128f:	83 ec 38             	sub    $0x38,%esp
    uint32_t dummy, edx;

    cpuid(0x00000001, &dummy, &dummy, &dummy, &edx);
  101292:	8d 44 24 28          	lea    0x28(%esp),%eax
  101296:	50                   	push   %eax
  101297:	8d 44 24 28          	lea    0x28(%esp),%eax
  10129b:	50                   	push   %eax
  10129c:	50                   	push   %eax
  10129d:	50                   	push   %eax
  10129e:	6a 01                	push   $0x1
  1012a0:	e8 7b 3b 00 00       	call   104e20 <cpuid>
    using_apic = (edx & CPUID_FEATURE_APIC) ? TRUE : FALSE;
  1012a5:	8b 44 24 3c          	mov    0x3c(%esp),%eax
    KERN_ASSERT(using_apic == TRUE);
  1012a9:	83 c4 20             	add    $0x20,%esp
    using_apic = (edx & CPUID_FEATURE_APIC) ? TRUE : FALSE;
  1012ac:	c1 e8 09             	shr    $0x9,%eax
  1012af:	83 e0 01             	and    $0x1,%eax
  1012b2:	88 83 8c 88 02 00    	mov    %al,0x2888c(%ebx)
    KERN_ASSERT(using_apic == TRUE);
  1012b8:	0f b6 83 8c 88 02 00 	movzbl 0x2888c(%ebx),%eax
  1012bf:	3c 01                	cmp    $0x1,%al
  1012c1:	74 1f                	je     1012e2 <intr_init+0x62>
  1012c3:	8d 83 6d 81 ff ff    	lea    -0x7e93(%ebx),%eax
  1012c9:	50                   	push   %eax
  1012ca:	8d 83 b5 80 ff ff    	lea    -0x7f4b(%ebx),%eax
  1012d0:	50                   	push   %eax
  1012d1:	8d 83 80 81 ff ff    	lea    -0x7e80(%ebx),%eax
  1012d7:	6a 63                	push   $0x63
  1012d9:	50                   	push   %eax
  1012da:	e8 81 2e 00 00       	call   104160 <debug_panic>
  1012df:	83 c4 10             	add    $0x10,%esp

    if (pcpu_onboot())
  1012e2:	e8 99 28 00 00       	call   103b80 <pcpu_onboot>
  1012e7:	84 c0                	test   %al,%al
  1012e9:	75 25                	jne    101310 <intr_init+0x90>
            intr_init_idt();
        }
    }

    /* all processors */
    if (using_apic)
  1012eb:	0f b6 83 8c 88 02 00 	movzbl 0x2888c(%ebx),%eax
  1012f2:	84 c0                	test   %al,%al
  1012f4:	0f 85 56 05 00 00    	jne    101850 <intr_init+0x5d0>
    asm volatile ("lidt %0" :: "m" (idt_pd));
  1012fa:	0f 01 9b 0c 03 00 00 	lidtl  0x30c(%ebx)
    {
        lapic_init();
    }
    intr_install_idt();
}
  101301:	83 c4 2c             	add    $0x2c,%esp
  101304:	5b                   	pop    %ebx
  101305:	5e                   	pop    %esi
  101306:	5f                   	pop    %edi
  101307:	5d                   	pop    %ebp
  101308:	c3                   	ret
  101309:	8d b4 26 00 00 00 00 	lea    0x0(%esi,%eiz,1),%esi
        pic_init();
  101310:	e8 5b 07 00 00       	call   101a70 <pic_init>
        if (using_apic)
  101315:	0f b6 83 8c 88 02 00 	movzbl 0x2888c(%ebx),%eax
  10131c:	84 c0                	test   %al,%al
  10131e:	74 cb                	je     1012eb <intr_init+0x6b>
            ioapic_init();
  101320:	e8 8b 18 00 00       	call   102bb0 <ioapic_init>
        SETGATE(idt[i], 0, CPU_GDT_KCODE, &Xdefault, 0);
  101325:	c7 c0 ce 22 10 00    	mov    $0x1022ce,%eax
  10132b:	8d 35 8c 80 02 00    	lea    0x2808c,%esi
  101331:	8d 8b 8c 80 02 00    	lea    0x2808c(%ebx),%ecx
  101337:	89 c2                	mov    %eax,%edx
  101339:	89 44 24 08          	mov    %eax,0x8(%esp)
  10133d:	89 c7                	mov    %eax,%edi
    for (i = 0; i < sizeof(idt) / sizeof(idt[0]); i++)
  10133f:	31 c0                	xor    %eax,%eax
        SETGATE(idt[i], 0, CPU_GDT_KCODE, &Xdefault, 0);
  101341:	c1 ea 10             	shr    $0x10,%edx
  101344:	89 54 24 0c          	mov    %edx,0xc(%esp)
  101348:	89 d5                	mov    %edx,%ebp
  10134a:	8d b6 00 00 00 00    	lea    0x0(%esi),%esi
  101350:	8d 14 c5 00 00 00 00 	lea    0x0(,%eax,8),%edx
  101357:	66 89 3c c1          	mov    %di,(%ecx,%eax,8)
    for (i = 0; i < sizeof(idt) / sizeof(idt[0]); i++)
  10135b:	83 c0 01             	add    $0x1,%eax
        SETGATE(idt[i], 0, CPU_GDT_KCODE, &Xdefault, 0);
  10135e:	c7 84 13 8e 80 02 00 	movl   $0x8e000008,0x2808e(%ebx,%edx,1)
  101365:	08 00 00 8e 
  101369:	01 da                	add    %ebx,%edx
  10136b:	66 89 6c 16 06       	mov    %bp,0x6(%esi,%edx,1)
    for (i = 0; i < sizeof(idt) / sizeof(idt[0]); i++)
  101370:	3d 00 01 00 00       	cmp    $0x100,%eax
  101375:	75 d9                	jne    101350 <intr_init+0xd0>
    SETGATE(idt[T_DIVIDE],                  0, CPU_GDT_KCODE, &Xdivide,         0);
  101377:	c7 c0 c0 21 10 00    	mov    $0x1021c0,%eax
  10137d:	8b 54 24 0c          	mov    0xc(%esp),%edx
  101381:	c7 83 8e 80 02 00 08 	movl   $0x8e000008,0x2808e(%ebx)
  101388:	00 00 8e 
    SETGATE(idt[T_FPERR],                   0, CPU_GDT_KCODE, &Xfperr,          0);
  10138b:	b9 08 00 00 00       	mov    $0x8,%ecx
    SETGATE(idt[T_DEBUG],                   0, CPU_GDT_KCODE, &Xdebug,          0);
  101390:	c7 83 96 80 02 00 08 	movl   $0x8e000008,0x28096(%ebx)
  101397:	00 00 8e 
    SETGATE(idt[T_FPERR],                   0, CPU_GDT_KCODE, &Xfperr,          0);
  10139a:	be 00 8e ff ff       	mov    $0xffff8e00,%esi
    SETGATE(idt[T_DIVIDE],                  0, CPU_GDT_KCODE, &Xdivide,         0);
  10139f:	66 89 83 8c 80 02 00 	mov    %ax,0x2808c(%ebx)
  1013a6:	c1 e8 10             	shr    $0x10,%eax
  1013a9:	66 89 83 92 80 02 00 	mov    %ax,0x28092(%ebx)
    SETGATE(idt[T_DEBUG],                   0, CPU_GDT_KCODE, &Xdebug,          0);
  1013b0:	c7 c0 ca 21 10 00    	mov    $0x1021ca,%eax
    SETGATE(idt[T_NMI],                     0, CPU_GDT_KCODE, &Xnmi,            0);
  1013b6:	c7 83 9e 80 02 00 08 	movl   $0x8e000008,0x2809e(%ebx)
  1013bd:	00 00 8e 
    SETGATE(idt[T_DEBUG],                   0, CPU_GDT_KCODE, &Xdebug,          0);
  1013c0:	66 89 83 94 80 02 00 	mov    %ax,0x28094(%ebx)
  1013c7:	c1 e8 10             	shr    $0x10,%eax
  1013ca:	66 89 83 9a 80 02 00 	mov    %ax,0x2809a(%ebx)
    SETGATE(idt[T_NMI],                     0, CPU_GDT_KCODE, &Xnmi,            0);
  1013d1:	c7 c0 d4 21 10 00    	mov    $0x1021d4,%eax
    SETGATE(idt[T_BRKPT],                   0, CPU_GDT_KCODE, &Xbrkpt,          3);
  1013d7:	c7 83 a6 80 02 00 08 	movl   $0xee000008,0x280a6(%ebx)
  1013de:	00 00 ee 
    SETGATE(idt[T_NMI],                     0, CPU_GDT_KCODE, &Xnmi,            0);
  1013e1:	66 89 83 9c 80 02 00 	mov    %ax,0x2809c(%ebx)
  1013e8:	c1 e8 10             	shr    $0x10,%eax
  1013eb:	66 89 83 a2 80 02 00 	mov    %ax,0x280a2(%ebx)
    SETGATE(idt[T_BRKPT],                   0, CPU_GDT_KCODE, &Xbrkpt,          3);
  1013f2:	c7 c0 de 21 10 00    	mov    $0x1021de,%eax
    SETGATE(idt[T_OFLOW],                   0, CPU_GDT_KCODE, &Xoflow,          3);
  1013f8:	c7 83 ae 80 02 00 08 	movl   $0xee000008,0x280ae(%ebx)
  1013ff:	00 00 ee 
    SETGATE(idt[T_BRKPT],                   0, CPU_GDT_KCODE, &Xbrkpt,          3);
  101402:	66 89 83 a4 80 02 00 	mov    %ax,0x280a4(%ebx)
  101409:	c1 e8 10             	shr    $0x10,%eax
  10140c:	66 89 83 aa 80 02 00 	mov    %ax,0x280aa(%ebx)
    SETGATE(idt[T_OFLOW],                   0, CPU_GDT_KCODE, &Xoflow,          3);
  101413:	c7 c0 e8 21 10 00    	mov    $0x1021e8,%eax
    SETGATE(idt[T_BOUND],                   0, CPU_GDT_KCODE, &Xbound,          0);
  101419:	c7 83 b6 80 02 00 08 	movl   $0x8e000008,0x280b6(%ebx)
  101420:	00 00 8e 
    SETGATE(idt[T_OFLOW],                   0, CPU_GDT_KCODE, &Xoflow,          3);
  101423:	66 89 83 ac 80 02 00 	mov    %ax,0x280ac(%ebx)
  10142a:	c1 e8 10             	shr    $0x10,%eax
  10142d:	66 89 83 b2 80 02 00 	mov    %ax,0x280b2(%ebx)
    SETGATE(idt[T_BOUND],                   0, CPU_GDT_KCODE, &Xbound,          0);
  101434:	c7 c0 f2 21 10 00    	mov    $0x1021f2,%eax
    SETGATE(idt[T_ILLOP],                   0, CPU_GDT_KCODE, &Xillop,          0);
  10143a:	c7 83 be 80 02 00 08 	movl   $0x8e000008,0x280be(%ebx)
  101441:	00 00 8e 
    SETGATE(idt[T_BOUND],                   0, CPU_GDT_KCODE, &Xbound,          0);
  101444:	66 89 83 b4 80 02 00 	mov    %ax,0x280b4(%ebx)
  10144b:	c1 e8 10             	shr    $0x10,%eax
  10144e:	66 89 83 ba 80 02 00 	mov    %ax,0x280ba(%ebx)
    SETGATE(idt[T_ILLOP],                   0, CPU_GDT_KCODE, &Xillop,          0);
  101455:	c7 c0 fc 21 10 00    	mov    $0x1021fc,%eax
    SETGATE(idt[T_DEVICE],                  0, CPU_GDT_KCODE, &Xdevice,         0);
  10145b:	c7 83 c6 80 02 00 08 	movl   $0x8e000008,0x280c6(%ebx)
  101462:	00 00 8e 
    SETGATE(idt[T_ILLOP],                   0, CPU_GDT_KCODE, &Xillop,          0);
  101465:	66 89 83 bc 80 02 00 	mov    %ax,0x280bc(%ebx)
  10146c:	c1 e8 10             	shr    $0x10,%eax
  10146f:	66 89 83 c2 80 02 00 	mov    %ax,0x280c2(%ebx)
    SETGATE(idt[T_DEVICE],                  0, CPU_GDT_KCODE, &Xdevice,         0);
  101476:	c7 c0 06 22 10 00    	mov    $0x102206,%eax
  10147c:	66 89 83 c4 80 02 00 	mov    %ax,0x280c4(%ebx)
  101483:	c1 e8 10             	shr    $0x10,%eax
  101486:	66 89 83 ca 80 02 00 	mov    %ax,0x280ca(%ebx)
    SETGATE(idt[T_DBLFLT],                  0, CPU_GDT_KCODE, &Xdblflt,         0);
  10148d:	c7 c0 10 22 10 00    	mov    $0x102210,%eax
    SETGATE(idt[T_FPERR],                   0, CPU_GDT_KCODE, &Xfperr,          0);
  101493:	66 89 8b 0e 81 02 00 	mov    %cx,0x2810e(%ebx)
    SETGATE(idt[T_DBLFLT],                  0, CPU_GDT_KCODE, &Xdblflt,         0);
  10149a:	66 89 83 cc 80 02 00 	mov    %ax,0x280cc(%ebx)
  1014a1:	c1 e8 10             	shr    $0x10,%eax
  1014a4:	66 89 83 d2 80 02 00 	mov    %ax,0x280d2(%ebx)
    SETGATE(idt[T_TSS],                     0, CPU_GDT_KCODE, &Xtss,            0);
  1014ab:	c7 c0 22 22 10 00    	mov    $0x102222,%eax
    SETGATE(idt[T_DBLFLT],                  0, CPU_GDT_KCODE, &Xdblflt,         0);
  1014b1:	c7 83 ce 80 02 00 08 	movl   $0x8e000008,0x280ce(%ebx)
  1014b8:	00 00 8e 
    SETGATE(idt[T_TSS],                     0, CPU_GDT_KCODE, &Xtss,            0);
  1014bb:	66 89 83 dc 80 02 00 	mov    %ax,0x280dc(%ebx)
  1014c2:	c1 e8 10             	shr    $0x10,%eax
  1014c5:	66 89 83 e2 80 02 00 	mov    %ax,0x280e2(%ebx)
    SETGATE(idt[T_SEGNP],                   0, CPU_GDT_KCODE, &Xsegnp,          0);
  1014cc:	c7 c0 2a 22 10 00    	mov    $0x10222a,%eax
    SETGATE(idt[T_TSS],                     0, CPU_GDT_KCODE, &Xtss,            0);
  1014d2:	c7 83 de 80 02 00 08 	movl   $0x8e000008,0x280de(%ebx)
  1014d9:	00 00 8e 
    SETGATE(idt[T_SEGNP],                   0, CPU_GDT_KCODE, &Xsegnp,          0);
  1014dc:	66 89 83 e4 80 02 00 	mov    %ax,0x280e4(%ebx)
  1014e3:	c1 e8 10             	shr    $0x10,%eax
  1014e6:	66 89 83 ea 80 02 00 	mov    %ax,0x280ea(%ebx)
    SETGATE(idt[T_STACK],                   0, CPU_GDT_KCODE, &Xstack,          0);
  1014ed:	c7 c0 32 22 10 00    	mov    $0x102232,%eax
    SETGATE(idt[T_SEGNP],                   0, CPU_GDT_KCODE, &Xsegnp,          0);
  1014f3:	c7 83 e6 80 02 00 08 	movl   $0x8e000008,0x280e6(%ebx)
  1014fa:	00 00 8e 
    SETGATE(idt[T_STACK],                   0, CPU_GDT_KCODE, &Xstack,          0);
  1014fd:	66 89 83 ec 80 02 00 	mov    %ax,0x280ec(%ebx)
  101504:	c1 e8 10             	shr    $0x10,%eax
  101507:	66 89 83 f2 80 02 00 	mov    %ax,0x280f2(%ebx)
    SETGATE(idt[T_GPFLT],                   0, CPU_GDT_KCODE, &Xgpflt,          0);
  10150e:	c7 c0 3a 22 10 00    	mov    $0x10223a,%eax
    SETGATE(idt[T_STACK],                   0, CPU_GDT_KCODE, &Xstack,          0);
  101514:	c7 83 ee 80 02 00 08 	movl   $0x8e000008,0x280ee(%ebx)
  10151b:	00 00 8e 
    SETGATE(idt[T_GPFLT],                   0, CPU_GDT_KCODE, &Xgpflt,          0);
  10151e:	66 89 83 f4 80 02 00 	mov    %ax,0x280f4(%ebx)
  101525:	c1 e8 10             	shr    $0x10,%eax
  101528:	66 89 83 fa 80 02 00 	mov    %ax,0x280fa(%ebx)
    SETGATE(idt[T_PGFLT],                   0, CPU_GDT_KCODE, &Xpgflt,          0);
  10152f:	c7 c0 42 22 10 00    	mov    $0x102242,%eax
    SETGATE(idt[T_GPFLT],                   0, CPU_GDT_KCODE, &Xgpflt,          0);
  101535:	c7 83 f6 80 02 00 08 	movl   $0x8e000008,0x280f6(%ebx)
  10153c:	00 00 8e 
    SETGATE(idt[T_PGFLT],                   0, CPU_GDT_KCODE, &Xpgflt,          0);
  10153f:	66 89 83 fc 80 02 00 	mov    %ax,0x280fc(%ebx)
  101546:	c1 e8 10             	shr    $0x10,%eax
  101549:	66 89 83 02 81 02 00 	mov    %ax,0x28102(%ebx)
    SETGATE(idt[T_FPERR],                   0, CPU_GDT_KCODE, &Xfperr,          0);
  101550:	c7 c0 54 22 10 00    	mov    $0x102254,%eax
    SETGATE(idt[T_PGFLT],                   0, CPU_GDT_KCODE, &Xpgflt,          0);
  101556:	c7 83 fe 80 02 00 08 	movl   $0x8e000008,0x280fe(%ebx)
  10155d:	00 00 8e 
    SETGATE(idt[T_FPERR],                   0, CPU_GDT_KCODE, &Xfperr,          0);
  101560:	66 89 83 0c 81 02 00 	mov    %ax,0x2810c(%ebx)
  101567:	c1 e8 10             	shr    $0x10,%eax
  10156a:	66 89 83 12 81 02 00 	mov    %ax,0x28112(%ebx)
    SETGATE(idt[T_ALIGN],                   0, CPU_GDT_KCODE, &Xalign,          0);
  101571:	c7 c0 5e 22 10 00    	mov    $0x10225e,%eax
    SETGATE(idt[T_FPERR],                   0, CPU_GDT_KCODE, &Xfperr,          0);
  101577:	66 89 b3 10 81 02 00 	mov    %si,0x28110(%ebx)
    SETGATE(idt[T_ALIGN],                   0, CPU_GDT_KCODE, &Xalign,          0);
  10157e:	66 89 83 14 81 02 00 	mov    %ax,0x28114(%ebx)
  101585:	c1 e8 10             	shr    $0x10,%eax
  101588:	c7 83 16 81 02 00 08 	movl   $0x8e000008,0x28116(%ebx)
  10158f:	00 00 8e 
  101592:	66 89 83 1a 81 02 00 	mov    %ax,0x2811a(%ebx)
    SETGATE(idt[T_MCHK],                    0, CPU_GDT_KCODE, &Xmchk,           0);
  101599:	c7 c0 62 22 10 00    	mov    $0x102262,%eax
  10159f:	c7 83 1e 81 02 00 08 	movl   $0x8e000008,0x2811e(%ebx)
  1015a6:	00 00 8e 
    SETGATE(idt[T_IRQ0 + IRQ_SERIAL13],     0, CPU_GDT_KCODE, &Xirq_serial1,    0);
  1015a9:	c7 c1 80 22 10 00    	mov    $0x102280,%ecx
    SETGATE(idt[T_MCHK],                    0, CPU_GDT_KCODE, &Xmchk,           0);
  1015af:	66 89 83 1c 81 02 00 	mov    %ax,0x2811c(%ebx)
  1015b6:	c1 e8 10             	shr    $0x10,%eax
  1015b9:	66 89 83 22 81 02 00 	mov    %ax,0x28122(%ebx)
    SETGATE(idt[T_IRQ0 + IRQ_TIMER],        0, CPU_GDT_KCODE, &Xirq_timer,      0);
  1015c0:	c7 c0 68 22 10 00    	mov    $0x102268,%eax
    SETGATE(idt[T_IRQ0 + IRQ_SERIAL13],     0, CPU_GDT_KCODE, &Xirq_serial1,    0);
  1015c6:	66 89 8b ac 81 02 00 	mov    %cx,0x281ac(%ebx)
  1015cd:	c1 e9 10             	shr    $0x10,%ecx
    SETGATE(idt[T_IRQ0 + IRQ_TIMER],        0, CPU_GDT_KCODE, &Xirq_timer,      0);
  1015d0:	66 89 83 8c 81 02 00 	mov    %ax,0x2818c(%ebx)
  1015d7:	c1 e8 10             	shr    $0x10,%eax
  1015da:	66 89 83 92 81 02 00 	mov    %ax,0x28192(%ebx)
    SETGATE(idt[T_IRQ0 + IRQ_KBD],          0, CPU_GDT_KCODE, &Xirq_kbd,        0);
  1015e1:	c7 c0 6e 22 10 00    	mov    $0x10226e,%eax
    SETGATE(idt[T_IRQ0 + IRQ_SERIAL13],     0, CPU_GDT_KCODE, &Xirq_serial1,    0);
  1015e7:	66 89 8b b2 81 02 00 	mov    %cx,0x281b2(%ebx)
    SETGATE(idt[T_IRQ0 + IRQ_KBD],          0, CPU_GDT_KCODE, &Xirq_kbd,        0);
  1015ee:	66 89 83 94 81 02 00 	mov    %ax,0x28194(%ebx)
  1015f5:	c1 e8 10             	shr    $0x10,%eax
  1015f8:	66 89 83 9a 81 02 00 	mov    %ax,0x2819a(%ebx)
    SETGATE(idt[T_IRQ0 + IRQ_SLAVE],        0, CPU_GDT_KCODE, &Xirq_slave,      0);
  1015ff:	c7 c0 74 22 10 00    	mov    $0x102274,%eax
    SETGATE(idt[T_IRQ0 + IRQ_TIMER],        0, CPU_GDT_KCODE, &Xirq_timer,      0);
  101605:	c7 83 8e 81 02 00 08 	movl   $0x8e000008,0x2818e(%ebx)
  10160c:	00 00 8e 
    SETGATE(idt[T_IRQ0 + IRQ_SLAVE],        0, CPU_GDT_KCODE, &Xirq_slave,      0);
  10160f:	66 89 83 9c 81 02 00 	mov    %ax,0x2819c(%ebx)
  101616:	c1 e8 10             	shr    $0x10,%eax
  101619:	66 89 83 a2 81 02 00 	mov    %ax,0x281a2(%ebx)
    SETGATE(idt[T_IRQ0 + IRQ_SERIAL24],     0, CPU_GDT_KCODE, &Xirq_serial2,    0);
  101620:	c7 c0 7a 22 10 00    	mov    $0x10227a,%eax
    SETGATE(idt[T_IRQ0 + IRQ_KBD],          0, CPU_GDT_KCODE, &Xirq_kbd,        0);
  101626:	c7 83 96 81 02 00 08 	movl   $0x8e000008,0x28196(%ebx)
  10162d:	00 00 8e 
    SETGATE(idt[T_IRQ0 + IRQ_SERIAL24],     0, CPU_GDT_KCODE, &Xirq_serial2,    0);
  101630:	66 89 83 a4 81 02 00 	mov    %ax,0x281a4(%ebx)
  101637:	c1 e8 10             	shr    $0x10,%eax
  10163a:	66 89 83 aa 81 02 00 	mov    %ax,0x281aa(%ebx)
    SETGATE(idt[T_IRQ0 + IRQ_SERIAL13],     0, CPU_GDT_KCODE, &Xirq_serial1,    0);
  101641:	8b 83 ae 81 02 00    	mov    0x281ae(%ebx),%eax
    SETGATE(idt[T_IRQ0 + IRQ_SLAVE],        0, CPU_GDT_KCODE, &Xirq_slave,      0);
  101647:	c7 83 9e 81 02 00 08 	movl   $0x8e000008,0x2819e(%ebx)
  10164e:	00 00 8e 
    SETGATE(idt[T_IRQ0 + IRQ_SERIAL24],     0, CPU_GDT_KCODE, &Xirq_serial2,    0);
  101651:	c7 83 a6 81 02 00 08 	movl   $0x8e000008,0x281a6(%ebx)
  101658:	00 00 8e 
    SETGATE(idt[T_IRQ0 + IRQ_SERIAL13],     0, CPU_GDT_KCODE, &Xirq_serial1,    0);
  10165b:	25 00 00 e0 ff       	and    $0xffe00000,%eax
    SETGATE(idt[T_IRQ0 + IRQ_LPT2],         0, CPU_GDT_KCODE, &Xirq_lpt,        0);
  101660:	c7 83 b6 81 02 00 08 	movl   $0x8e000008,0x281b6(%ebx)
  101667:	00 00 8e 
    SETGATE(idt[T_IRQ0 + IRQ_SERIAL13],     0, CPU_GDT_KCODE, &Xirq_serial1,    0);
  10166a:	83 c8 08             	or     $0x8,%eax
  10166d:	89 83 ae 81 02 00    	mov    %eax,0x281ae(%ebx)
  101673:	0f b7 83 b0 81 02 00 	movzwl 0x281b0(%ebx),%eax
  10167a:	83 e0 1f             	and    $0x1f,%eax
  10167d:	66 0d 00 8e          	or     $0x8e00,%ax
  101681:	66 89 83 b0 81 02 00 	mov    %ax,0x281b0(%ebx)
    SETGATE(idt[T_IRQ0 + IRQ_LPT2],         0, CPU_GDT_KCODE, &Xirq_lpt,        0);
  101688:	c7 c0 86 22 10 00    	mov    $0x102286,%eax
  10168e:	66 89 83 b4 81 02 00 	mov    %ax,0x281b4(%ebx)
  101695:	c1 e8 10             	shr    $0x10,%eax
  101698:	66 89 83 ba 81 02 00 	mov    %ax,0x281ba(%ebx)
    SETGATE(idt[T_IRQ0 + IRQ_FLOPPY],       0, CPU_GDT_KCODE, &Xirq_floppy,     0);
  10169f:	c7 c0 8c 22 10 00    	mov    $0x10228c,%eax
  1016a5:	66 89 83 bc 81 02 00 	mov    %ax,0x281bc(%ebx)
  1016ac:	c1 e8 10             	shr    $0x10,%eax
    SETGATE(idt[T_IRQ0 + 11],               0, CPU_GDT_KCODE, &Xirq11,          0);
  1016af:	c7 c1 aa 22 10 00    	mov    $0x1022aa,%ecx
    SETGATE(idt[T_IRQ0 + IRQ_FLOPPY],       0, CPU_GDT_KCODE, &Xirq_floppy,     0);
  1016b5:	66 89 83 c2 81 02 00 	mov    %ax,0x281c2(%ebx)
    SETGATE(idt[T_IRQ0 + IRQ_SPURIOUS],     0, CPU_GDT_KCODE, &Xirq_spurious,   0);
  1016bc:	c7 c0 92 22 10 00    	mov    $0x102292,%eax
    SETGATE(idt[T_IRQ0 + 11],               0, CPU_GDT_KCODE, &Xirq11,          0);
  1016c2:	66 89 8b e4 81 02 00 	mov    %cx,0x281e4(%ebx)
    SETGATE(idt[T_IRQ0 + IRQ_SPURIOUS],     0, CPU_GDT_KCODE, &Xirq_spurious,   0);
  1016c9:	66 89 83 c4 81 02 00 	mov    %ax,0x281c4(%ebx)
  1016d0:	c1 e8 10             	shr    $0x10,%eax
  1016d3:	66 89 83 ca 81 02 00 	mov    %ax,0x281ca(%ebx)
    SETGATE(idt[T_IRQ0 + IRQ_RTC],          0, CPU_GDT_KCODE, &Xirq_rtc,        0);
  1016da:	c7 c0 98 22 10 00    	mov    $0x102298,%eax
    SETGATE(idt[T_IRQ0 + IRQ_FLOPPY],       0, CPU_GDT_KCODE, &Xirq_floppy,     0);
  1016e0:	c7 83 be 81 02 00 08 	movl   $0x8e000008,0x281be(%ebx)
  1016e7:	00 00 8e 
    SETGATE(idt[T_IRQ0 + IRQ_RTC],          0, CPU_GDT_KCODE, &Xirq_rtc,        0);
  1016ea:	66 89 83 cc 81 02 00 	mov    %ax,0x281cc(%ebx)
  1016f1:	c1 e8 10             	shr    $0x10,%eax
  1016f4:	66 89 83 d2 81 02 00 	mov    %ax,0x281d2(%ebx)
    SETGATE(idt[T_IRQ0 + 9],                0, CPU_GDT_KCODE, &Xirq9,           0);
  1016fb:	c7 c0 9e 22 10 00    	mov    $0x10229e,%eax
    SETGATE(idt[T_IRQ0 + IRQ_SPURIOUS],     0, CPU_GDT_KCODE, &Xirq_spurious,   0);
  101701:	c7 83 c6 81 02 00 08 	movl   $0x8e000008,0x281c6(%ebx)
  101708:	00 00 8e 
    SETGATE(idt[T_IRQ0 + 9],                0, CPU_GDT_KCODE, &Xirq9,           0);
  10170b:	66 89 83 d4 81 02 00 	mov    %ax,0x281d4(%ebx)
  101712:	c1 e8 10             	shr    $0x10,%eax
  101715:	66 89 83 da 81 02 00 	mov    %ax,0x281da(%ebx)
    SETGATE(idt[T_IRQ0 + 10],               0, CPU_GDT_KCODE, &Xirq10,          0);
  10171c:	c7 c0 a4 22 10 00    	mov    $0x1022a4,%eax
    SETGATE(idt[T_IRQ0 + IRQ_RTC],          0, CPU_GDT_KCODE, &Xirq_rtc,        0);
  101722:	c7 83 ce 81 02 00 08 	movl   $0x8e000008,0x281ce(%ebx)
  101729:	00 00 8e 
    SETGATE(idt[T_IRQ0 + 10],               0, CPU_GDT_KCODE, &Xirq10,          0);
  10172c:	66 89 83 dc 81 02 00 	mov    %ax,0x281dc(%ebx)
  101733:	c1 e8 10             	shr    $0x10,%eax
  101736:	66 89 83 e2 81 02 00 	mov    %ax,0x281e2(%ebx)
    SETGATE(idt[T_IRQ0 + 11],               0, CPU_GDT_KCODE, &Xirq11,          0);
  10173d:	8b 83 e6 81 02 00    	mov    0x281e6(%ebx),%eax
    SETGATE(idt[T_IRQ0 + 9],                0, CPU_GDT_KCODE, &Xirq9,           0);
  101743:	c7 83 d6 81 02 00 08 	movl   $0x8e000008,0x281d6(%ebx)
  10174a:	00 00 8e 
    SETGATE(idt[T_IRQ0 + 10],               0, CPU_GDT_KCODE, &Xirq10,          0);
  10174d:	c7 83 de 81 02 00 08 	movl   $0x8e000008,0x281de(%ebx)
  101754:	00 00 8e 
    SETGATE(idt[T_IRQ0 + 11],               0, CPU_GDT_KCODE, &Xirq11,          0);
  101757:	25 00 00 00 ff       	and    $0xff000000,%eax
  10175c:	c1 e9 10             	shr    $0x10,%ecx
  10175f:	83 c8 08             	or     $0x8,%eax
  101762:	66 89 8b ea 81 02 00 	mov    %cx,0x281ea(%ebx)
  101769:	89 83 e6 81 02 00    	mov    %eax,0x281e6(%ebx)
    SETGATE(idt[T_IRQ0 + IRQ_MOUSE],        0, CPU_GDT_KCODE, &Xirq_mouse,      0);
  10176f:	c7 c0 b0 22 10 00    	mov    $0x1022b0,%eax
    SETGATE(idt[T_IRQ0 + 11],               0, CPU_GDT_KCODE, &Xirq11,          0);
  101775:	c6 83 e9 81 02 00 8e 	movb   $0x8e,0x281e9(%ebx)
    SETGATE(idt[T_IRQ0 + IRQ_MOUSE],        0, CPU_GDT_KCODE, &Xirq_mouse,      0);
  10177c:	66 89 83 ec 81 02 00 	mov    %ax,0x281ec(%ebx)
  101783:	c1 e8 10             	shr    $0x10,%eax
  101786:	66 89 83 f2 81 02 00 	mov    %ax,0x281f2(%ebx)
    SETGATE(idt[T_IRQ0 + IRQ_COPROCESSOR],  0, CPU_GDT_KCODE, &Xirq_coproc,     0);
  10178d:	c7 c0 b6 22 10 00    	mov    $0x1022b6,%eax
    SETGATE(idt[T_IRQ0 + IRQ_MOUSE],        0, CPU_GDT_KCODE, &Xirq_mouse,      0);
  101793:	c7 83 ee 81 02 00 08 	movl   $0x8e000008,0x281ee(%ebx)
  10179a:	00 00 8e 
    SETGATE(idt[T_IRQ0 + IRQ_COPROCESSOR],  0, CPU_GDT_KCODE, &Xirq_coproc,     0);
  10179d:	66 89 83 f4 81 02 00 	mov    %ax,0x281f4(%ebx)
  1017a4:	c1 e8 10             	shr    $0x10,%eax
  1017a7:	c7 83 f6 81 02 00 08 	movl   $0x8e000008,0x281f6(%ebx)
  1017ae:	00 00 8e 
  1017b1:	66 89 83 fa 81 02 00 	mov    %ax,0x281fa(%ebx)
    SETGATE(idt[T_IRQ0 + IRQ_IDE1],         0, CPU_GDT_KCODE, &Xirq_ide1,       0);
  1017b8:	c7 c0 bc 22 10 00    	mov    $0x1022bc,%eax
  1017be:	c7 83 fe 81 02 00 08 	movl   $0x8e000008,0x281fe(%ebx)
  1017c5:	00 00 8e 
  1017c8:	66 89 83 fc 81 02 00 	mov    %ax,0x281fc(%ebx)
  1017cf:	c1 e8 10             	shr    $0x10,%eax
  1017d2:	66 89 83 02 82 02 00 	mov    %ax,0x28202(%ebx)
    SETGATE(idt[T_IRQ0 + IRQ_IDE2],         0, CPU_GDT_KCODE, &Xirq_ide2,       0);
  1017d9:	c7 c0 c2 22 10 00    	mov    $0x1022c2,%eax
  1017df:	c7 83 06 82 02 00 08 	movl   $0x8e000008,0x28206(%ebx)
  1017e6:	00 00 8e 
  1017e9:	66 89 83 04 82 02 00 	mov    %ax,0x28204(%ebx)
  1017f0:	c1 e8 10             	shr    $0x10,%eax
  1017f3:	66 89 83 0a 82 02 00 	mov    %ax,0x2820a(%ebx)
    SETGATE(idt[T_SYSCALL], 0, CPU_GDT_KCODE, &Xsyscall, 3);
  1017fa:	c7 c0 c8 22 10 00    	mov    $0x1022c8,%eax
  101800:	c7 83 0e 82 02 00 08 	movl   $0xee000008,0x2820e(%ebx)
  101807:	00 00 ee 
  10180a:	66 89 83 0c 82 02 00 	mov    %ax,0x2820c(%ebx)
  101811:	c1 e8 10             	shr    $0x10,%eax
  101814:	66 89 83 12 82 02 00 	mov    %ax,0x28212(%ebx)
    SETGATE(idt[T_DEFAULT], 0, CPU_GDT_KCODE, &Xdefault, 0);
  10181b:	0f b7 44 24 08       	movzwl 0x8(%esp),%eax
  101820:	c7 83 7e 88 02 00 08 	movl   $0x8e000008,0x2887e(%ebx)
  101827:	00 00 8e 
  10182a:	66 89 83 7c 88 02 00 	mov    %ax,0x2887c(%ebx)
    if (using_apic)
  101831:	0f b6 83 8c 88 02 00 	movzbl 0x2888c(%ebx),%eax
    SETGATE(idt[T_DEFAULT], 0, CPU_GDT_KCODE, &Xdefault, 0);
  101838:	66 89 93 82 88 02 00 	mov    %dx,0x28882(%ebx)
    if (using_apic)
  10183f:	84 c0                	test   %al,%al
  101841:	0f 84 b3 fa ff ff    	je     1012fa <intr_init+0x7a>
  101847:	2e 8d b4 26 00 00 00 	lea    %cs:0x0(%esi,%eiz,1),%esi
  10184e:	00 
  10184f:	90                   	nop
        lapic_init();
  101850:	e8 fb 0d 00 00       	call   102650 <lapic_init>
  101855:	e9 a0 fa ff ff       	jmp    1012fa <intr_init+0x7a>
  10185a:	8d b6 00 00 00 00    	lea    0x0(%esi),%esi

00101860 <intr_enable>:

void intr_enable(uint8_t irq, int cpunum)
{
  101860:	57                   	push   %edi
  101861:	56                   	push   %esi
  101862:	53                   	push   %ebx
  101863:	8b 7c 24 14          	mov    0x14(%esp),%edi
  101867:	e8 36 eb ff ff       	call   1003a2 <__x86.get_pc_thunk.bx>
  10186c:	81 c3 88 f7 00 00    	add    $0xf788,%ebx
  101872:	8b 74 24 10          	mov    0x10(%esp),%esi
    KERN_ASSERT(cpunum == 0xff || (0 <= cpunum && cpunum < pcpu_ncpu()));
  101876:	81 ff ff 00 00 00    	cmp    $0xff,%edi
  10187c:	74 62                	je     1018e0 <intr_enable+0x80>
  10187e:	85 ff                	test   %edi,%edi
  101880:	78 0d                	js     10188f <intr_enable+0x2f>
  101882:	e8 b9 22 00 00       	call   103b40 <pcpu_ncpu>
  101887:	39 c7                	cmp    %eax,%edi
  101889:	0f 82 81 00 00 00    	jb     101910 <intr_enable+0xb0>
  10188f:	8d 83 58 8a ff ff    	lea    -0x75a8(%ebx),%eax
  101895:	50                   	push   %eax
  101896:	8d 83 b5 80 ff ff    	lea    -0x7f4b(%ebx),%eax
  10189c:	50                   	push   %eax
  10189d:	8d 83 80 81 ff ff    	lea    -0x7e80(%ebx),%eax
  1018a3:	6a 7a                	push   $0x7a
  1018a5:	50                   	push   %eax
  1018a6:	e8 b5 28 00 00       	call   104160 <debug_panic>

    if (irq >= 24)
  1018ab:	89 f0                	mov    %esi,%eax
  1018ad:	83 c4 10             	add    $0x10,%esp
  1018b0:	3c 17                	cmp    $0x17,%al
  1018b2:	77 22                	ja     1018d6 <intr_enable+0x76>
        return;

    if (using_apic == TRUE) {
  1018b4:	0f b6 83 8c 88 02 00 	movzbl 0x2888c(%ebx),%eax
  1018bb:	3c 01                	cmp    $0x1,%al
  1018bd:	74 62                	je     101921 <intr_enable+0xc1>
        ioapic_enable(irq, (cpunum == 0xff) ?  0xff : pcpu_cpu_lapicid(cpunum), 0, 0);
    } else {
        KERN_ASSERT(irq < 16);
  1018bf:	89 f0                	mov    %esi,%eax
  1018c1:	3c 0f                	cmp    $0xf,%al
  1018c3:	77 73                	ja     101938 <intr_enable+0xd8>
        pic_enable(irq);
  1018c5:	89 f0                	mov    %esi,%eax
  1018c7:	83 ec 0c             	sub    $0xc,%esp
  1018ca:	0f b6 f0             	movzbl %al,%esi
  1018cd:	56                   	push   %esi
  1018ce:	e8 dd 02 00 00       	call   101bb0 <pic_enable>
  1018d3:	83 c4 10             	add    $0x10,%esp
    }
}
  1018d6:	5b                   	pop    %ebx
  1018d7:	5e                   	pop    %esi
  1018d8:	5f                   	pop    %edi
  1018d9:	c3                   	ret
  1018da:	8d b6 00 00 00 00    	lea    0x0(%esi),%esi
    if (irq >= 24)
  1018e0:	89 f0                	mov    %esi,%eax
  1018e2:	3c 17                	cmp    $0x17,%al
  1018e4:	77 f0                	ja     1018d6 <intr_enable+0x76>
    if (using_apic == TRUE) {
  1018e6:	0f b6 83 8c 88 02 00 	movzbl 0x2888c(%ebx),%eax
  1018ed:	3c 01                	cmp    $0x1,%al
  1018ef:	75 ce                	jne    1018bf <intr_enable+0x5f>
        ioapic_enable(irq, (cpunum == 0xff) ?  0xff : pcpu_cpu_lapicid(cpunum), 0, 0);
  1018f1:	89 f0                	mov    %esi,%eax
  1018f3:	6a 00                	push   $0x0
  1018f5:	0f b6 f0             	movzbl %al,%esi
  1018f8:	6a 00                	push   $0x0
  1018fa:	57                   	push   %edi
  1018fb:	56                   	push   %esi
  1018fc:	e8 ff 13 00 00       	call   102d00 <ioapic_enable>
  101901:	83 c4 10             	add    $0x10,%esp
}
  101904:	5b                   	pop    %ebx
  101905:	5e                   	pop    %esi
  101906:	5f                   	pop    %edi
  101907:	c3                   	ret
  101908:	2e 8d b4 26 00 00 00 	lea    %cs:0x0(%esi,%eiz,1),%esi
  10190f:	00 
    if (irq >= 24)
  101910:	89 f0                	mov    %esi,%eax
  101912:	3c 17                	cmp    $0x17,%al
  101914:	77 c0                	ja     1018d6 <intr_enable+0x76>
    if (using_apic == TRUE) {
  101916:	0f b6 83 8c 88 02 00 	movzbl 0x2888c(%ebx),%eax
  10191d:	3c 01                	cmp    $0x1,%al
  10191f:	75 9e                	jne    1018bf <intr_enable+0x5f>
        ioapic_enable(irq, (cpunum == 0xff) ?  0xff : pcpu_cpu_lapicid(cpunum), 0, 0);
  101921:	83 ec 0c             	sub    $0xc,%esp
  101924:	57                   	push   %edi
  101925:	e8 a6 22 00 00       	call   103bd0 <pcpu_cpu_lapicid>
  10192a:	83 c4 10             	add    $0x10,%esp
  10192d:	0f b6 f8             	movzbl %al,%edi
  101930:	eb bf                	jmp    1018f1 <intr_enable+0x91>
  101932:	8d b6 00 00 00 00    	lea    0x0(%esi),%esi
        KERN_ASSERT(irq < 16);
  101938:	8d 83 90 81 ff ff    	lea    -0x7e70(%ebx),%eax
  10193e:	50                   	push   %eax
  10193f:	8d 83 b5 80 ff ff    	lea    -0x7f4b(%ebx),%eax
  101945:	50                   	push   %eax
  101946:	8d 83 80 81 ff ff    	lea    -0x7e80(%ebx),%eax
  10194c:	68 82 00 00 00       	push   $0x82
  101951:	50                   	push   %eax
  101952:	e8 09 28 00 00       	call   104160 <debug_panic>
  101957:	83 c4 10             	add    $0x10,%esp
  10195a:	e9 66 ff ff ff       	jmp    1018c5 <intr_enable+0x65>
  10195f:	90                   	nop

00101960 <intr_enable_lapicid>:

void intr_enable_lapicid(uint8_t irq, int lapic_id)
{
  101960:	56                   	push   %esi
  101961:	53                   	push   %ebx
  101962:	e8 3b ea ff ff       	call   1003a2 <__x86.get_pc_thunk.bx>
  101967:	81 c3 8d f6 00 00    	add    $0xf68d,%ebx
  10196d:	83 ec 04             	sub    $0x4,%esp
  101970:	8b 44 24 10          	mov    0x10(%esp),%eax
    if (irq > 24)
  101974:	3c 18                	cmp    $0x18,%al
  101976:	77 1f                	ja     101997 <intr_enable_lapicid+0x37>
        return;

    if (using_apic == TRUE) {
  101978:	0f b6 93 8c 88 02 00 	movzbl 0x2888c(%ebx),%edx
        ioapic_enable(irq, (lapic_id == 0xff) ?  0xff : lapic_id, 0, 0);
  10197f:	0f b6 f0             	movzbl %al,%esi
    if (using_apic == TRUE) {
  101982:	80 fa 01             	cmp    $0x1,%dl
  101985:	74 41                	je     1019c8 <intr_enable_lapicid+0x68>
    } else {
        KERN_ASSERT(irq < 16);
  101987:	3c 0f                	cmp    $0xf,%al
  101989:	77 15                	ja     1019a0 <intr_enable_lapicid+0x40>
        pic_enable(irq);
  10198b:	83 ec 0c             	sub    $0xc,%esp
  10198e:	56                   	push   %esi
  10198f:	e8 1c 02 00 00       	call   101bb0 <pic_enable>
  101994:	83 c4 10             	add    $0x10,%esp
    }
}
  101997:	83 c4 04             	add    $0x4,%esp
  10199a:	5b                   	pop    %ebx
  10199b:	5e                   	pop    %esi
  10199c:	c3                   	ret
  10199d:	8d 76 00             	lea    0x0(%esi),%esi
        KERN_ASSERT(irq < 16);
  1019a0:	8d 83 90 81 ff ff    	lea    -0x7e70(%ebx),%eax
  1019a6:	50                   	push   %eax
  1019a7:	8d 83 b5 80 ff ff    	lea    -0x7f4b(%ebx),%eax
  1019ad:	50                   	push   %eax
  1019ae:	8d 83 80 81 ff ff    	lea    -0x7e80(%ebx),%eax
  1019b4:	68 8f 00 00 00       	push   $0x8f
  1019b9:	50                   	push   %eax
  1019ba:	e8 a1 27 00 00       	call   104160 <debug_panic>
  1019bf:	83 c4 10             	add    $0x10,%esp
  1019c2:	eb c7                	jmp    10198b <intr_enable_lapicid+0x2b>
  1019c4:	8d 74 26 00          	lea    0x0(%esi,%eiz,1),%esi
        ioapic_enable(irq, (lapic_id == 0xff) ?  0xff : lapic_id, 0, 0);
  1019c8:	6a 00                	push   $0x0
  1019ca:	6a 00                	push   $0x0
  1019cc:	0f b6 44 24 1c       	movzbl 0x1c(%esp),%eax
  1019d1:	50                   	push   %eax
  1019d2:	56                   	push   %esi
  1019d3:	e8 28 13 00 00       	call   102d00 <ioapic_enable>
  1019d8:	83 c4 10             	add    $0x10,%esp
}
  1019db:	83 c4 04             	add    $0x4,%esp
  1019de:	5b                   	pop    %ebx
  1019df:	5e                   	pop    %esi
  1019e0:	c3                   	ret
  1019e1:	2e 8d b4 26 00 00 00 	lea    %cs:0x0(%esi,%eiz,1),%esi
  1019e8:	00 
  1019e9:	8d b4 26 00 00 00 00 	lea    0x0(%esi,%eiz,1),%esi

001019f0 <intr_eoi>:

void intr_eoi(void)
{
  1019f0:	53                   	push   %ebx
  1019f1:	e8 ac e9 ff ff       	call   1003a2 <__x86.get_pc_thunk.bx>
  1019f6:	81 c3 fe f5 00 00    	add    $0xf5fe,%ebx
  1019fc:	83 ec 08             	sub    $0x8,%esp
    if (using_apic == TRUE)
  1019ff:	0f b6 83 8c 88 02 00 	movzbl 0x2888c(%ebx),%eax
  101a06:	3c 01                	cmp    $0x1,%al
  101a08:	74 0e                	je     101a18 <intr_eoi+0x28>
        lapic_eoi();
    else
        pic_eoi();
  101a0a:	e8 f1 01 00 00       	call   101c00 <pic_eoi>
}
  101a0f:	83 c4 08             	add    $0x8,%esp
  101a12:	5b                   	pop    %ebx
  101a13:	c3                   	ret
  101a14:	8d 74 26 00          	lea    0x0(%esi,%eiz,1),%esi
        lapic_eoi();
  101a18:	e8 23 0f 00 00       	call   102940 <lapic_eoi>
}
  101a1d:	83 c4 08             	add    $0x8,%esp
  101a20:	5b                   	pop    %ebx
  101a21:	c3                   	ret
  101a22:	2e 8d b4 26 00 00 00 	lea    %cs:0x0(%esi,%eiz,1),%esi
  101a29:	00 
  101a2a:	8d b6 00 00 00 00    	lea    0x0(%esi),%esi

00101a30 <intr_local_enable>:

void intr_local_enable(void)
{
  101a30:	53                   	push   %ebx
  101a31:	e8 6c e9 ff ff       	call   1003a2 <__x86.get_pc_thunk.bx>
  101a36:	81 c3 be f5 00 00    	add    $0xf5be,%ebx
  101a3c:	83 ec 08             	sub    $0x8,%esp
    sti();
  101a3f:	e8 2c 33 00 00       	call   104d70 <sti>
}
  101a44:	83 c4 08             	add    $0x8,%esp
  101a47:	5b                   	pop    %ebx
  101a48:	c3                   	ret
  101a49:	8d b4 26 00 00 00 00 	lea    0x0(%esi,%eiz,1),%esi

00101a50 <intr_local_disable>:

void intr_local_disable(void)
{
  101a50:	53                   	push   %ebx
  101a51:	e8 4c e9 ff ff       	call   1003a2 <__x86.get_pc_thunk.bx>
  101a56:	81 c3 9e f5 00 00    	add    $0xf59e,%ebx
  101a5c:	83 ec 08             	sub    $0x8,%esp
    cli();
  101a5f:	e8 fc 32 00 00       	call   104d60 <cli>
}
  101a64:	83 c4 08             	add    $0x8,%esp
  101a67:	5b                   	pop    %ebx
  101a68:	c3                   	ret
  101a69:	66 90                	xchg   %ax,%ax
  101a6b:	66 90                	xchg   %ax,%ax
  101a6d:	66 90                	xchg   %ax,%ax
  101a6f:	90                   	nop

00101a70 <pic_init>:
static uint16_t irqmask = 0xFFFF & ~(1 << IRQ_SLAVE);
static bool pic_inited = FALSE;

/* Initialize the 8259A interrupt controllers. */
void pic_init(void)
{
  101a70:	53                   	push   %ebx
  101a71:	e8 2c e9 ff ff       	call   1003a2 <__x86.get_pc_thunk.bx>
  101a76:	81 c3 7e f5 00 00    	add    $0xf57e,%ebx
  101a7c:	83 ec 08             	sub    $0x8,%esp
    if (pic_inited == TRUE)  // only do once on bootstrap CPU
  101a7f:	80 bb 8d 88 02 00 01 	cmpb   $0x1,0x2888d(%ebx)
  101a86:	0f 84 df 00 00 00    	je     101b6b <pic_init+0xfb>
        return;
    pic_inited = TRUE;

    /* mask all interrupts */
    outb(IO_PIC1 + 1, 0xff);
  101a8c:	83 ec 08             	sub    $0x8,%esp
    pic_inited = TRUE;
  101a8f:	c6 83 8d 88 02 00 01 	movb   $0x1,0x2888d(%ebx)
    outb(IO_PIC1 + 1, 0xff);
  101a96:	68 ff 00 00 00       	push   $0xff
  101a9b:	6a 21                	push   $0x21
  101a9d:	e8 de 34 00 00       	call   104f80 <outb>
    outb(IO_PIC2 + 1, 0xff);
  101aa2:	58                   	pop    %eax
  101aa3:	5a                   	pop    %edx
  101aa4:	68 ff 00 00 00       	push   $0xff
  101aa9:	68 a1 00 00 00       	push   $0xa1
  101aae:	e8 cd 34 00 00       	call   104f80 <outb>

    // ICW1:  0001g0hi
    //    g:  0 = edge triggering, 1 = level triggering
    //    h:  0 = cascaded PICs, 1 = master only
    //    i:  0 = no ICW4, 1 = ICW4 required
    outb(IO_PIC1, 0x11);
  101ab3:	59                   	pop    %ecx
  101ab4:	58                   	pop    %eax
  101ab5:	6a 11                	push   $0x11
  101ab7:	6a 20                	push   $0x20
  101ab9:	e8 c2 34 00 00       	call   104f80 <outb>

    // ICW2:  Vector offset
    outb(IO_PIC1 + 1, T_IRQ0);
  101abe:	58                   	pop    %eax
  101abf:	5a                   	pop    %edx
  101ac0:	6a 20                	push   $0x20
  101ac2:	6a 21                	push   $0x21
  101ac4:	e8 b7 34 00 00       	call   104f80 <outb>

    // ICW3:  bit mask of IR lines connected to slave PICs (master PIC),
    //        3-bit No of IR line at which slave connects to master (slave PIC).
    outb(IO_PIC1 + 1, 1 << IRQ_SLAVE);
  101ac9:	59                   	pop    %ecx
  101aca:	58                   	pop    %eax
  101acb:	6a 04                	push   $0x4
  101acd:	6a 21                	push   $0x21
  101acf:	e8 ac 34 00 00       	call   104f80 <outb>
    //    m:  0 = slave PIC, 1 = master PIC
    //        (ignored when b is 0, as the master/slave role
    //        can be hardwired).
    //    a:  1 = Automatic EOI mode
    //    p:  0 = MCS-80/85 mode, 1 = intel x86 mode
    outb(IO_PIC1 + 1, 0x1);
  101ad4:	58                   	pop    %eax
  101ad5:	5a                   	pop    %edx
  101ad6:	6a 01                	push   $0x1
  101ad8:	6a 21                	push   $0x21
  101ada:	e8 a1 34 00 00       	call   104f80 <outb>

    // Set up slave (8259A-2)
    outb(IO_PIC2, 0x11);            // ICW1
  101adf:	59                   	pop    %ecx
  101ae0:	58                   	pop    %eax
  101ae1:	6a 11                	push   $0x11
  101ae3:	68 a0 00 00 00       	push   $0xa0
  101ae8:	e8 93 34 00 00       	call   104f80 <outb>
    outb(IO_PIC2 + 1, T_IRQ0 + 8);  // ICW2
  101aed:	58                   	pop    %eax
  101aee:	5a                   	pop    %edx
  101aef:	6a 28                	push   $0x28
  101af1:	68 a1 00 00 00       	push   $0xa1
  101af6:	e8 85 34 00 00       	call   104f80 <outb>
    outb(IO_PIC2 + 1, IRQ_SLAVE);   // ICW3
  101afb:	59                   	pop    %ecx
  101afc:	58                   	pop    %eax
  101afd:	6a 02                	push   $0x2
  101aff:	68 a1 00 00 00       	push   $0xa1
  101b04:	e8 77 34 00 00       	call   104f80 <outb>
    // NB Automatic EOI mode doesn't tend to work on the slave.
    // Linux source code says it's "to be investigated".
    outb(IO_PIC2 + 1, 0x01);        // ICW4
  101b09:	58                   	pop    %eax
  101b0a:	5a                   	pop    %edx
  101b0b:	6a 01                	push   $0x1
  101b0d:	68 a1 00 00 00       	push   $0xa1
  101b12:	e8 69 34 00 00       	call   104f80 <outb>

    // OCW3:  0ef01prs
    //   ef:  0x = NOP, 10 = clear specific mask, 11 = set specific mask
    //    p:  0 = no polling, 1 = polling mode
    //   rs:  0x = NOP, 10 = read IRR, 11 = read ISR
    outb(IO_PIC1, 0x68);  /* clear specific mask */
  101b17:	59                   	pop    %ecx
  101b18:	58                   	pop    %eax
  101b19:	6a 68                	push   $0x68
  101b1b:	6a 20                	push   $0x20
  101b1d:	e8 5e 34 00 00       	call   104f80 <outb>
    outb(IO_PIC1, 0x0a);  /* read IRR by default */
  101b22:	58                   	pop    %eax
  101b23:	5a                   	pop    %edx
  101b24:	6a 0a                	push   $0xa
  101b26:	6a 20                	push   $0x20
  101b28:	e8 53 34 00 00       	call   104f80 <outb>

    outb(IO_PIC2, 0x68);  /* OCW3 */
  101b2d:	59                   	pop    %ecx
  101b2e:	58                   	pop    %eax
  101b2f:	6a 68                	push   $0x68
  101b31:	68 a0 00 00 00       	push   $0xa0
  101b36:	e8 45 34 00 00       	call   104f80 <outb>
    outb(IO_PIC2, 0x0a);  /* OCW3 */
  101b3b:	58                   	pop    %eax
  101b3c:	5a                   	pop    %edx
  101b3d:	6a 0a                	push   $0xa
  101b3f:	68 a0 00 00 00       	push   $0xa0
  101b44:	e8 37 34 00 00       	call   104f80 <outb>

    // mask all interrupts
    outb(IO_PIC1 + 1, 0xFF);
  101b49:	59                   	pop    %ecx
  101b4a:	58                   	pop    %eax
  101b4b:	68 ff 00 00 00       	push   $0xff
  101b50:	6a 21                	push   $0x21
  101b52:	e8 29 34 00 00       	call   104f80 <outb>
    outb(IO_PIC2 + 1, 0xFF);
  101b57:	58                   	pop    %eax
  101b58:	5a                   	pop    %edx
  101b59:	68 ff 00 00 00       	push   $0xff
  101b5e:	68 a1 00 00 00       	push   $0xa1
  101b63:	e8 18 34 00 00       	call   104f80 <outb>
  101b68:	83 c4 10             	add    $0x10,%esp
}
  101b6b:	83 c4 08             	add    $0x8,%esp
  101b6e:	5b                   	pop    %ebx
  101b6f:	c3                   	ret

00101b70 <pic_setmask>:

void pic_setmask(uint16_t mask)
{
  101b70:	56                   	push   %esi
  101b71:	53                   	push   %ebx
  101b72:	e8 2b e8 ff ff       	call   1003a2 <__x86.get_pc_thunk.bx>
  101b77:	81 c3 7d f4 00 00    	add    $0xf47d,%ebx
  101b7d:	83 ec 0c             	sub    $0xc,%esp
  101b80:	8b 74 24 18          	mov    0x18(%esp),%esi
    irqmask = mask;
    outb(IO_PIC1 + 1, (char) mask);
  101b84:	89 f0                	mov    %esi,%eax
  101b86:	0f b6 c0             	movzbl %al,%eax
    irqmask = mask;
  101b89:	66 89 b3 12 03 00 00 	mov    %si,0x312(%ebx)
    outb(IO_PIC1 + 1, (char) mask);
  101b90:	50                   	push   %eax
  101b91:	6a 21                	push   $0x21
  101b93:	e8 e8 33 00 00       	call   104f80 <outb>
    outb(IO_PIC2 + 1, (char) (mask >> 8));
  101b98:	58                   	pop    %eax
  101b99:	89 f0                	mov    %esi,%eax
  101b9b:	5a                   	pop    %edx
  101b9c:	0f b6 f4             	movzbl %ah,%esi
  101b9f:	56                   	push   %esi
  101ba0:	68 a1 00 00 00       	push   $0xa1
  101ba5:	e8 d6 33 00 00       	call   104f80 <outb>
}
  101baa:	83 c4 14             	add    $0x14,%esp
  101bad:	5b                   	pop    %ebx
  101bae:	5e                   	pop    %esi
  101baf:	c3                   	ret

00101bb0 <pic_enable>:

void pic_enable(int irq)
{
  101bb0:	56                   	push   %esi
  101bb1:	53                   	push   %ebx
  101bb2:	e8 eb e7 ff ff       	call   1003a2 <__x86.get_pc_thunk.bx>
  101bb7:	81 c3 3d f4 00 00    	add    $0xf43d,%ebx
  101bbd:	83 ec 0c             	sub    $0xc,%esp
    pic_setmask(irqmask & ~(1 << irq));
  101bc0:	8b 44 24 18          	mov    0x18(%esp),%eax
  101bc4:	0f b7 b3 12 03 00 00 	movzwl 0x312(%ebx),%esi
  101bcb:	0f b3 c6             	btr    %eax,%esi
    outb(IO_PIC1 + 1, (char) mask);
  101bce:	89 f0                	mov    %esi,%eax
    irqmask = mask;
  101bd0:	66 89 b3 12 03 00 00 	mov    %si,0x312(%ebx)
    outb(IO_PIC1 + 1, (char) mask);
  101bd7:	0f b6 c0             	movzbl %al,%eax
  101bda:	50                   	push   %eax
  101bdb:	6a 21                	push   $0x21
  101bdd:	e8 9e 33 00 00       	call   104f80 <outb>
    outb(IO_PIC2 + 1, (char) (mask >> 8));
  101be2:	58                   	pop    %eax
  101be3:	89 f0                	mov    %esi,%eax
  101be5:	5a                   	pop    %edx
  101be6:	0f b6 f4             	movzbl %ah,%esi
  101be9:	56                   	push   %esi
  101bea:	68 a1 00 00 00       	push   $0xa1
  101bef:	e8 8c 33 00 00       	call   104f80 <outb>
}
  101bf4:	83 c4 14             	add    $0x14,%esp
  101bf7:	5b                   	pop    %ebx
  101bf8:	5e                   	pop    %esi
  101bf9:	c3                   	ret
  101bfa:	8d b6 00 00 00 00    	lea    0x0(%esi),%esi

00101c00 <pic_eoi>:

void pic_eoi(void)
{
  101c00:	53                   	push   %ebx
  101c01:	e8 9c e7 ff ff       	call   1003a2 <__x86.get_pc_thunk.bx>
  101c06:	81 c3 ee f3 00 00    	add    $0xf3ee,%ebx
  101c0c:	83 ec 10             	sub    $0x10,%esp
    // OCW2: rse00xxx
    //   r: rotate
    //   s: specific
    //   e: end-of-interrupt
    // xxx: specific interrupt line
    outb(IO_PIC1, 0x20);
  101c0f:	6a 20                	push   $0x20
  101c11:	6a 20                	push   $0x20
  101c13:	e8 68 33 00 00       	call   104f80 <outb>
    outb(IO_PIC2, 0x20);
  101c18:	58                   	pop    %eax
  101c19:	5a                   	pop    %edx
  101c1a:	6a 20                	push   $0x20
  101c1c:	68 a0 00 00 00       	push   $0xa0
  101c21:	e8 5a 33 00 00       	call   104f80 <outb>
}
  101c26:	83 c4 18             	add    $0x18,%esp
  101c29:	5b                   	pop    %ebx
  101c2a:	c3                   	ret
  101c2b:	2e 8d 74 26 00       	lea    %cs:0x0(%esi,%eiz,1),%esi

00101c30 <pic_reset>:

void pic_reset(void)
{
  101c30:	53                   	push   %ebx
  101c31:	e8 6c e7 ff ff       	call   1003a2 <__x86.get_pc_thunk.bx>
  101c36:	81 c3 be f3 00 00    	add    $0xf3be,%ebx
  101c3c:	83 ec 10             	sub    $0x10,%esp
    // mask all interrupts
    outb(IO_PIC1 + 1, 0x00);
  101c3f:	6a 00                	push   $0x0
  101c41:	6a 21                	push   $0x21
  101c43:	e8 38 33 00 00       	call   104f80 <outb>
    outb(IO_PIC2 + 1, 0x00);
  101c48:	58                   	pop    %eax
  101c49:	5a                   	pop    %edx
  101c4a:	6a 00                	push   $0x0
  101c4c:	68 a1 00 00 00       	push   $0xa1
  101c51:	e8 2a 33 00 00       	call   104f80 <outb>

    // ICW1:  0001g0hi
    //    g:  0 = edge triggering, 1 = level triggering
    //    h:  0 = cascaded PICs, 1 = master only
    //    i:  0 = no ICW4, 1 = ICW4 required
    outb(IO_PIC1, 0x11);
  101c56:	59                   	pop    %ecx
  101c57:	58                   	pop    %eax
  101c58:	6a 11                	push   $0x11
  101c5a:	6a 20                	push   $0x20
  101c5c:	e8 1f 33 00 00       	call   104f80 <outb>

    // ICW2:  Vector offset
    outb(IO_PIC1 + 1, T_IRQ0);
  101c61:	58                   	pop    %eax
  101c62:	5a                   	pop    %edx
  101c63:	6a 20                	push   $0x20
  101c65:	6a 21                	push   $0x21
  101c67:	e8 14 33 00 00       	call   104f80 <outb>

    // ICW3:  bit mask of IR lines connected to slave PICs (master PIC),
    //        3-bit No of IR line at which slave connects to master(slave PIC).
    outb(IO_PIC1 + 1, 1 << IRQ_SLAVE);
  101c6c:	59                   	pop    %ecx
  101c6d:	58                   	pop    %eax
  101c6e:	6a 04                	push   $0x4
  101c70:	6a 21                	push   $0x21
  101c72:	e8 09 33 00 00       	call   104f80 <outb>
    //    m:  0 = slave PIC, 1 = master PIC
    //        (ignored when b is 0, as the master/slave role
    //        can be hardwired).
    //    a:  1 = Automatic EOI mode
    //    p:  0 = MCS-80/85 mode, 1 = intel x86 mode
    outb(IO_PIC1 + 1, 0x3);
  101c77:	58                   	pop    %eax
  101c78:	5a                   	pop    %edx
  101c79:	6a 03                	push   $0x3
  101c7b:	6a 21                	push   $0x21
  101c7d:	e8 fe 32 00 00       	call   104f80 <outb>

    // Set up slave (8259A-2)
    outb(IO_PIC2, 0x11);            // ICW1
  101c82:	59                   	pop    %ecx
  101c83:	58                   	pop    %eax
  101c84:	6a 11                	push   $0x11
  101c86:	68 a0 00 00 00       	push   $0xa0
  101c8b:	e8 f0 32 00 00       	call   104f80 <outb>
    outb(IO_PIC2 + 1, T_IRQ0 + 8);  // ICW2
  101c90:	58                   	pop    %eax
  101c91:	5a                   	pop    %edx
  101c92:	6a 28                	push   $0x28
  101c94:	68 a1 00 00 00       	push   $0xa1
  101c99:	e8 e2 32 00 00       	call   104f80 <outb>
    outb(IO_PIC2 + 1, IRQ_SLAVE);   // ICW3
  101c9e:	59                   	pop    %ecx
  101c9f:	58                   	pop    %eax
  101ca0:	6a 02                	push   $0x2
  101ca2:	68 a1 00 00 00       	push   $0xa1
  101ca7:	e8 d4 32 00 00       	call   104f80 <outb>
    // NB Automatic EOI mode doesn't tend to work on the slave.
    // Linux source code says it's "to be investigated".
    outb(IO_PIC2 + 1, 0x01);        // ICW4
  101cac:	58                   	pop    %eax
  101cad:	5a                   	pop    %edx
  101cae:	6a 01                	push   $0x1
  101cb0:	68 a1 00 00 00       	push   $0xa1
  101cb5:	e8 c6 32 00 00       	call   104f80 <outb>

    // OCW3:  0ef01prs
    //   ef:  0x = NOP, 10 = clear specific mask, 11 = set specific mask
    //    p:  0 = no polling, 1 = polling mode
    //   rs:  0x = NOP, 10 = read IRR, 11 = read ISR
    outb(IO_PIC1, 0x68);  /* clear specific mask */
  101cba:	59                   	pop    %ecx
  101cbb:	58                   	pop    %eax
  101cbc:	6a 68                	push   $0x68
  101cbe:	6a 20                	push   $0x20
  101cc0:	e8 bb 32 00 00       	call   104f80 <outb>
    outb(IO_PIC1, 0x0a);  /* read IRR by default */
  101cc5:	58                   	pop    %eax
  101cc6:	5a                   	pop    %edx
  101cc7:	6a 0a                	push   $0xa
  101cc9:	6a 20                	push   $0x20
  101ccb:	e8 b0 32 00 00       	call   104f80 <outb>

    outb(IO_PIC2, 0x68);  /* OCW3 */
  101cd0:	59                   	pop    %ecx
  101cd1:	58                   	pop    %eax
  101cd2:	6a 68                	push   $0x68
  101cd4:	68 a0 00 00 00       	push   $0xa0
  101cd9:	e8 a2 32 00 00       	call   104f80 <outb>
    outb(IO_PIC2, 0x0a);  /* OCW3 */
  101cde:	58                   	pop    %eax
  101cdf:	5a                   	pop    %edx
  101ce0:	6a 0a                	push   $0xa
  101ce2:	68 a0 00 00 00       	push   $0xa0
  101ce7:	e8 94 32 00 00       	call   104f80 <outb>
}
  101cec:	83 c4 18             	add    $0x18,%esp
  101cef:	5b                   	pop    %ebx
  101cf0:	c3                   	ret
  101cf1:	66 90                	xchg   %ax,%ax
  101cf3:	66 90                	xchg   %ax,%ax
  101cf5:	66 90                	xchg   %ax,%ax
  101cf7:	66 90                	xchg   %ax,%ax
  101cf9:	66 90                	xchg   %ax,%ax
  101cfb:	66 90                	xchg   %ax,%ax
  101cfd:	66 90                	xchg   %ax,%ax
  101cff:	90                   	nop

00101d00 <timer_hw_init>:
#define TIMER_16BIT   0x30  /* r/w counter 16 bits, LSB first */

// Initialize the programmable interval timer.

void timer_hw_init(void)
{
  101d00:	53                   	push   %ebx
  101d01:	e8 9c e6 ff ff       	call   1003a2 <__x86.get_pc_thunk.bx>
  101d06:	81 c3 ee f2 00 00    	add    $0xf2ee,%ebx
  101d0c:	83 ec 10             	sub    $0x10,%esp
    outb(PIT_CONTROL, TIMER_SEL0 | TIMER_RATEGEN | TIMER_16BIT);
  101d0f:	6a 34                	push   $0x34
  101d11:	6a 43                	push   $0x43
  101d13:	e8 68 32 00 00       	call   104f80 <outb>
    outb(PIT_CHANNEL0, LOW8(LATCH));
  101d18:	58                   	pop    %eax
  101d19:	5a                   	pop    %edx
  101d1a:	68 9c 00 00 00       	push   $0x9c
  101d1f:	6a 40                	push   $0x40
  101d21:	e8 5a 32 00 00       	call   104f80 <outb>
    outb(PIT_CHANNEL0, HIGH8(LATCH));
  101d26:	59                   	pop    %ecx
  101d27:	58                   	pop    %eax
  101d28:	6a 2e                	push   $0x2e
  101d2a:	6a 40                	push   $0x40
  101d2c:	e8 4f 32 00 00       	call   104f80 <outb>
}
  101d31:	83 c4 18             	add    $0x18,%esp
  101d34:	5b                   	pop    %ebx
  101d35:	c3                   	ret
  101d36:	66 90                	xchg   %ax,%ax
  101d38:	66 90                	xchg   %ax,%ax
  101d3a:	66 90                	xchg   %ax,%ax
  101d3c:	66 90                	xchg   %ax,%ax
  101d3e:	66 90                	xchg   %ax,%ax

00101d40 <tsc_init>:
    delta = t2 - t1;
    return delta / ms;
}

int tsc_init(void)
{
  101d40:	55                   	push   %ebp
  101d41:	57                   	push   %edi
  101d42:	56                   	push   %esi
  101d43:	53                   	push   %ebx
  101d44:	e8 59 e6 ff ff       	call   1003a2 <__x86.get_pc_thunk.bx>
  101d49:	81 c3 ab f2 00 00    	add    $0xf2ab,%ebx
  101d4f:	83 ec 4c             	sub    $0x4c,%esp
    uint64_t ret;
    int i;

    timer_hw_init();
  101d52:	e8 a9 ff ff ff       	call   101d00 <timer_hw_init>

    tsc_per_ms = 0;
  101d57:	c7 83 94 88 02 00 00 	movl   $0x0,0x28894(%ebx)
  101d5e:	00 00 00 
  101d61:	c7 83 98 88 02 00 00 	movl   $0x0,0x28898(%ebx)
  101d68:	00 00 00 

    if (detect_kvm())
  101d6b:	e8 c0 1e 00 00       	call   103c30 <detect_kvm>
  101d70:	85 c0                	test   %eax,%eax
  101d72:	0f 85 c6 02 00 00    	jne    10203e <tsc_init+0x2fe>
  101d78:	8d 83 b4 8a ff ff    	lea    -0x754c(%ebx),%eax

    /*
     * XXX: If TSC calibration fails frequently, try to increase the
     *      upper bound of loop condition, e.g. alternating 3 to 10.
     */
    for (i = 0; i < 10; i++) {
  101d7e:	c7 44 24 28 00 00 00 	movl   $0x0,0x28(%esp)
  101d85:	00 
  101d86:	89 44 24 38          	mov    %eax,0x38(%esp)
  101d8a:	8d 83 99 81 ff ff    	lea    -0x7e67(%ebx),%eax
  101d90:	89 44 24 2c          	mov    %eax,0x2c(%esp)
        ret = tsc_calibrate(CAL_LATCH, CAL_MS, CAL_PIT_LOOPS);
        if (ret != ~(uint64_t) 0x0)
            break;
        KERN_DEBUG("[%d] Retry to calibrate TSC.\n", i + 1);
  101d94:	8d 83 c1 81 ff ff    	lea    -0x7e3f(%ebx),%eax
  101d9a:	89 44 24 3c          	mov    %eax,0x3c(%esp)
  101d9e:	89 5c 24 14          	mov    %ebx,0x14(%esp)
  101da2:	8d b6 00 00 00 00    	lea    0x0(%esi),%esi
    outb(0x61, (inb(0x61) & ~0x02) | 0x01);
  101da8:	83 ec 0c             	sub    $0xc,%esp
  101dab:	6a 61                	push   $0x61
  101dad:	8b 5c 24 24          	mov    0x24(%esp),%ebx
  101db1:	e8 9a 31 00 00       	call   104f50 <inb>
  101db6:	5e                   	pop    %esi
  101db7:	5f                   	pop    %edi
    tscmin = ~(uint64_t) 0x0;
  101db8:	bf ff ff ff ff       	mov    $0xffffffff,%edi
    outb(0x61, (inb(0x61) & ~0x02) | 0x01);
  101dbd:	25 fc 00 00 00       	and    $0xfc,%eax
  101dc2:	83 c8 01             	or     $0x1,%eax
  101dc5:	50                   	push   %eax
  101dc6:	6a 61                	push   $0x61
  101dc8:	e8 b3 31 00 00       	call   104f80 <outb>
    outb(0x43, 0xb0);
  101dcd:	5d                   	pop    %ebp
  101dce:	58                   	pop    %eax
  101dcf:	68 b0 00 00 00       	push   $0xb0
  101dd4:	6a 43                	push   $0x43
    pitcnt = 0;
  101dd6:	31 ed                	xor    %ebp,%ebp
    outb(0x43, 0xb0);
  101dd8:	e8 a3 31 00 00       	call   104f80 <outb>
    outb(0x42, latch & 0xff);
  101ddd:	58                   	pop    %eax
  101dde:	5a                   	pop    %edx
  101ddf:	68 9b 00 00 00       	push   $0x9b
  101de4:	6a 42                	push   $0x42
  101de6:	e8 95 31 00 00       	call   104f80 <outb>
    outb(0x42, latch >> 8);
  101deb:	59                   	pop    %ecx
  101dec:	5e                   	pop    %esi
  101ded:	6a 2e                	push   $0x2e
  101def:	6a 42                	push   $0x42
    tscmin = ~(uint64_t) 0x0;
  101df1:	be ff ff ff ff       	mov    $0xffffffff,%esi
    outb(0x42, latch >> 8);
  101df6:	e8 85 31 00 00       	call   104f80 <outb>
    tsc = t1 = t2 = rdtsc();
  101dfb:	e8 f0 2f 00 00       	call   104df0 <rdtsc>
  101e00:	89 44 24 40          	mov    %eax,0x40(%esp)
  101e04:	89 54 24 44          	mov    %edx,0x44(%esp)
    while ((inb(0x61) & 0x20) == 0) {
  101e08:	83 c4 10             	add    $0x10,%esp
    tsc = t1 = t2 = rdtsc();
  101e0b:	89 44 24 18          	mov    %eax,0x18(%esp)
  101e0f:	89 54 24 1c          	mov    %edx,0x1c(%esp)
    tscmax = 0;
  101e13:	c7 44 24 08 00 00 00 	movl   $0x0,0x8(%esp)
  101e1a:	00 
  101e1b:	c7 44 24 0c 00 00 00 	movl   $0x0,0xc(%esp)
  101e22:	00 
    while ((inb(0x61) & 0x20) == 0) {
  101e23:	eb 63                	jmp    101e88 <tsc_init+0x148>
  101e25:	8d 76 00             	lea    0x0(%esi),%esi
        t2 = rdtsc();
  101e28:	8b 5c 24 14          	mov    0x14(%esp),%ebx
  101e2c:	e8 bf 2f 00 00       	call   104df0 <rdtsc>
        delta = t2 - tsc;
  101e31:	89 c1                	mov    %eax,%ecx
  101e33:	89 d3                	mov    %edx,%ebx
  101e35:	2b 4c 24 18          	sub    0x18(%esp),%ecx
  101e39:	1b 5c 24 1c          	sbb    0x1c(%esp),%ebx
  101e3d:	89 44 24 20          	mov    %eax,0x20(%esp)
        if (delta < tscmin)
  101e41:	39 f1                	cmp    %esi,%ecx
  101e43:	89 d8                	mov    %ebx,%eax
  101e45:	19 f8                	sbb    %edi,%eax
        delta = t2 - tsc;
  101e47:	89 54 24 24          	mov    %edx,0x24(%esp)
        if (delta > tscmax)
  101e4b:	8b 44 24 08          	mov    0x8(%esp),%eax
  101e4f:	8b 54 24 0c          	mov    0xc(%esp),%edx
        if (delta < tscmin)
  101e53:	0f 42 f1             	cmovb  %ecx,%esi
  101e56:	0f 42 fb             	cmovb  %ebx,%edi
        if (delta > tscmax)
  101e59:	39 c8                	cmp    %ecx,%eax
  101e5b:	89 d0                	mov    %edx,%eax
        tsc = t2;
  101e5d:	8b 54 24 24          	mov    0x24(%esp),%edx
        if (delta > tscmax)
  101e61:	19 d8                	sbb    %ebx,%eax
  101e63:	8b 44 24 08          	mov    0x8(%esp),%eax
        tsc = t2;
  101e67:	89 54 24 1c          	mov    %edx,0x1c(%esp)
        if (delta > tscmax)
  101e6b:	0f 42 c1             	cmovb  %ecx,%eax
  101e6e:	89 44 24 08          	mov    %eax,0x8(%esp)
  101e72:	89 d8                	mov    %ebx,%eax
  101e74:	0f 43 44 24 0c       	cmovae 0xc(%esp),%eax
        pitcnt++;
  101e79:	83 c5 01             	add    $0x1,%ebp
        if (delta > tscmax)
  101e7c:	89 44 24 0c          	mov    %eax,0xc(%esp)
        tsc = t2;
  101e80:	8b 44 24 20          	mov    0x20(%esp),%eax
  101e84:	89 44 24 18          	mov    %eax,0x18(%esp)
    while ((inb(0x61) & 0x20) == 0) {
  101e88:	83 ec 0c             	sub    $0xc,%esp
  101e8b:	6a 61                	push   $0x61
  101e8d:	8b 5c 24 24          	mov    0x24(%esp),%ebx
  101e91:	e8 ba 30 00 00       	call   104f50 <inb>
  101e96:	83 c4 10             	add    $0x10,%esp
  101e99:	a8 20                	test   $0x20,%al
  101e9b:	74 8b                	je     101e28 <tsc_init+0xe8>
    KERN_DEBUG("pitcnt=%u, tscmin=%llu, tscmax=%llu\n",
  101e9d:	ff 74 24 0c          	push   0xc(%esp)
  101ea1:	ff 74 24 0c          	push   0xc(%esp)
  101ea5:	57                   	push   %edi
  101ea6:	56                   	push   %esi
  101ea7:	55                   	push   %ebp
  101ea8:	ff 74 24 4c          	push   0x4c(%esp)
  101eac:	6a 39                	push   $0x39
  101eae:	ff 74 24 48          	push   0x48(%esp)
  101eb2:	8b 5c 24 34          	mov    0x34(%esp),%ebx
  101eb6:	e8 45 22 00 00       	call   104100 <debug_normal>
    if (pitcnt < loopmin || tscmax > 10 * tscmin)
  101ebb:	83 c4 20             	add    $0x20,%esp
  101ebe:	81 fd e7 03 00 00    	cmp    $0x3e7,%ebp
  101ec4:	0f 8e f6 00 00 00    	jle    101fc0 <tsc_init+0x280>
  101eca:	89 f0                	mov    %esi,%eax
  101ecc:	89 fa                	mov    %edi,%edx
  101ece:	8b 6c 24 0c          	mov    0xc(%esp),%ebp
  101ed2:	c1 e0 02             	shl    $0x2,%eax
  101ed5:	0f a4 f2 02          	shld   $0x2,%esi,%edx
  101ed9:	01 f0                	add    %esi,%eax
  101edb:	11 fa                	adc    %edi,%edx
  101edd:	8b 7c 24 08          	mov    0x8(%esp),%edi
  101ee1:	0f a4 c2 01          	shld   $0x1,%eax,%edx
  101ee5:	01 c0                	add    %eax,%eax
  101ee7:	39 f8                	cmp    %edi,%eax
  101ee9:	89 d0                	mov    %edx,%eax
  101eeb:	19 e8                	sbb    %ebp,%eax
  101eed:	0f 82 cd 00 00 00    	jb     101fc0 <tsc_init+0x280>
    delta = t2 - t1;
  101ef3:	8b 74 24 18          	mov    0x18(%esp),%esi
  101ef7:	2b 74 24 30          	sub    0x30(%esp),%esi
    return delta / ms;
  101efb:	b9 cd cc cc cc       	mov    $0xcccccccd,%ecx
    delta = t2 - t1;
  101f00:	8b 7c 24 1c          	mov    0x1c(%esp),%edi
    return delta / ms;
  101f04:	89 f5                	mov    %esi,%ebp
    delta = t2 - t1;
  101f06:	1b 7c 24 34          	sbb    0x34(%esp),%edi
    return delta / ms;
  101f0a:	01 fd                	add    %edi,%ebp
  101f0c:	83 d5 00             	adc    $0x0,%ebp
  101f0f:	89 e8                	mov    %ebp,%eax
  101f11:	f7 e1                	mul    %ecx
  101f13:	89 d0                	mov    %edx,%eax
  101f15:	83 e2 fc             	and    $0xfffffffc,%edx
  101f18:	c1 e8 02             	shr    $0x2,%eax
  101f1b:	01 c2                	add    %eax,%edx
  101f1d:	29 d5                	sub    %edx,%ebp
  101f1f:	29 ee                	sub    %ebp,%esi
  101f21:	83 df 00             	sbb    $0x0,%edi
  101f24:	89 74 24 08          	mov    %esi,0x8(%esp)
  101f28:	69 44 24 08 cc cc cc 	imul   $0xcccccccc,0x8(%esp),%eax
  101f2f:	cc 

        timer_hw_init();
        return 1;
    } else {
        tsc_per_ms = ret;
        KERN_DEBUG("TSC freq = %u.%03u MHz.\n",tsc_per_ms / 1000, tsc_per_ms % 1000);
  101f30:	83 ec 10             	sub    $0x10,%esp
    return delta / ms;
  101f33:	89 fa                	mov    %edi,%edx
  101f35:	69 ff cd cc cc cc    	imul   $0xcccccccd,%edi,%edi
  101f3b:	89 54 24 1c          	mov    %edx,0x1c(%esp)
  101f3f:	01 c7                	add    %eax,%edi
  101f41:	8b 44 24 18          	mov    0x18(%esp),%eax
        KERN_DEBUG("TSC freq = %u.%03u MHz.\n",tsc_per_ms / 1000, tsc_per_ms % 1000);
  101f45:	6a 00                	push   $0x0
  101f47:	68 e8 03 00 00       	push   $0x3e8
    return delta / ms;
  101f4c:	f7 e1                	mul    %ecx
  101f4e:	01 fa                	add    %edi,%edx
  101f50:	0f ac d0 01          	shrd   $0x1,%edx,%eax
  101f54:	d1 ea                	shr    $1,%edx
        tsc_per_ms = ret;
  101f56:	89 83 94 88 02 00    	mov    %eax,0x28894(%ebx)
  101f5c:	89 93 98 88 02 00    	mov    %edx,0x28898(%ebx)
        KERN_DEBUG("TSC freq = %u.%03u MHz.\n",tsc_per_ms / 1000, tsc_per_ms % 1000);
  101f62:	8b 83 94 88 02 00    	mov    0x28894(%ebx),%eax
  101f68:	8b 93 98 88 02 00    	mov    0x28898(%ebx),%edx
  101f6e:	8b b3 94 88 02 00    	mov    0x28894(%ebx),%esi
  101f74:	8b bb 98 88 02 00    	mov    0x28898(%ebx),%edi
  101f7a:	52                   	push   %edx
  101f7b:	50                   	push   %eax
  101f7c:	e8 af 65 00 00       	call   108530 <__umoddi3>
  101f81:	83 c4 1c             	add    $0x1c,%esp
  101f84:	52                   	push   %edx
  101f85:	50                   	push   %eax
  101f86:	83 ec 04             	sub    $0x4,%esp
  101f89:	6a 00                	push   $0x0
  101f8b:	68 e8 03 00 00       	push   $0x3e8
  101f90:	57                   	push   %edi
  101f91:	56                   	push   %esi
  101f92:	e8 69 64 00 00       	call   108400 <__udivdi3>
  101f97:	83 c4 14             	add    $0x14,%esp
  101f9a:	52                   	push   %edx
  101f9b:	50                   	push   %eax
  101f9c:	8d 83 a8 81 ff ff    	lea    -0x7e58(%ebx),%eax
  101fa2:	50                   	push   %eax
  101fa3:	6a 68                	push   $0x68
  101fa5:	ff 74 24 48          	push   0x48(%esp)
  101fa9:	e8 52 21 00 00       	call   104100 <debug_normal>

        timer_hw_init();
  101fae:	83 c4 20             	add    $0x20,%esp
  101fb1:	e8 4a fd ff ff       	call   101d00 <timer_hw_init>
        return 0;
    }
}
  101fb6:	83 c4 4c             	add    $0x4c,%esp
		return (0);
  101fb9:	31 c0                	xor    %eax,%eax
}
  101fbb:	5b                   	pop    %ebx
  101fbc:	5e                   	pop    %esi
  101fbd:	5f                   	pop    %edi
  101fbe:	5d                   	pop    %ebp
  101fbf:	c3                   	ret
        KERN_DEBUG("[%d] Retry to calibrate TSC.\n", i + 1);
  101fc0:	83 44 24 28 01       	addl   $0x1,0x28(%esp)
  101fc5:	8b 7c 24 28          	mov    0x28(%esp),%edi
  101fc9:	57                   	push   %edi
  101fca:	ff 74 24 40          	push   0x40(%esp)
  101fce:	6a 5c                	push   $0x5c
  101fd0:	ff 74 24 38          	push   0x38(%esp)
  101fd4:	8b 5c 24 24          	mov    0x24(%esp),%ebx
  101fd8:	e8 23 21 00 00       	call   104100 <debug_normal>
    for (i = 0; i < 10; i++) {
  101fdd:	83 c4 10             	add    $0x10,%esp
  101fe0:	83 ff 0a             	cmp    $0xa,%edi
  101fe3:	0f 85 bf fd ff ff    	jne    101da8 <tsc_init+0x68>
        KERN_DEBUG("TSC calibration failed.\n");
  101fe9:	8b 5c 24 14          	mov    0x14(%esp),%ebx
  101fed:	83 ec 04             	sub    $0x4,%esp
  101ff0:	8d 83 df 81 ff ff    	lea    -0x7e21(%ebx),%eax
  101ff6:	50                   	push   %eax
  101ff7:	6a 60                	push   $0x60
  101ff9:	8b 7c 24 38          	mov    0x38(%esp),%edi
  101ffd:	57                   	push   %edi
  101ffe:	e8 fd 20 00 00       	call   104100 <debug_normal>
        KERN_DEBUG("Assume TSC freq = 1 GHz.\n");
  102003:	83 c4 0c             	add    $0xc,%esp
  102006:	8d 83 f8 81 ff ff    	lea    -0x7e08(%ebx),%eax
  10200c:	50                   	push   %eax
  10200d:	6a 61                	push   $0x61
  10200f:	57                   	push   %edi
  102010:	e8 eb 20 00 00       	call   104100 <debug_normal>
        tsc_per_ms = 1000000;
  102015:	c7 83 94 88 02 00 40 	movl   $0xf4240,0x28894(%ebx)
  10201c:	42 0f 00 
  10201f:	c7 83 98 88 02 00 00 	movl   $0x0,0x28898(%ebx)
  102026:	00 00 00 
        timer_hw_init();
  102029:	e8 d2 fc ff ff       	call   101d00 <timer_hw_init>
        return 1;
  10202e:	83 c4 10             	add    $0x10,%esp
  102031:	b8 01 00 00 00       	mov    $0x1,%eax
}
  102036:	83 c4 4c             	add    $0x4c,%esp
  102039:	5b                   	pop    %ebx
  10203a:	5e                   	pop    %esi
  10203b:	5f                   	pop    %edi
  10203c:	5d                   	pop    %ebp
  10203d:	c3                   	ret
		tsc_per_ms = kvm_get_tsc_hz() / 1000llu;
  10203e:	e8 2d 1d 00 00       	call   103d70 <kvm_get_tsc_hz>
  102043:	6a 00                	push   $0x0
  102045:	68 e8 03 00 00       	push   $0x3e8
  10204a:	52                   	push   %edx
  10204b:	50                   	push   %eax
  10204c:	e8 af 63 00 00       	call   108400 <__udivdi3>
		KERN_INFO ("TSC read from KVM: %u.%03u MHz.\n",
  102051:	6a 00                	push   $0x0
		tsc_per_ms = kvm_get_tsc_hz() / 1000llu;
  102053:	89 83 94 88 02 00    	mov    %eax,0x28894(%ebx)
  102059:	89 93 98 88 02 00    	mov    %edx,0x28898(%ebx)
		KERN_INFO ("TSC read from KVM: %u.%03u MHz.\n",
  10205f:	8b 83 94 88 02 00    	mov    0x28894(%ebx),%eax
  102065:	8b 93 98 88 02 00    	mov    0x28898(%ebx),%edx
  10206b:	68 e8 03 00 00       	push   $0x3e8
  102070:	8b b3 94 88 02 00    	mov    0x28894(%ebx),%esi
  102076:	8b bb 98 88 02 00    	mov    0x28898(%ebx),%edi
  10207c:	52                   	push   %edx
  10207d:	50                   	push   %eax
  10207e:	e8 ad 64 00 00       	call   108530 <__umoddi3>
  102083:	83 c4 14             	add    $0x14,%esp
  102086:	52                   	push   %edx
  102087:	50                   	push   %eax
  102088:	83 ec 0c             	sub    $0xc,%esp
  10208b:	6a 00                	push   $0x0
  10208d:	68 e8 03 00 00       	push   $0x3e8
  102092:	57                   	push   %edi
  102093:	56                   	push   %esi
  102094:	e8 67 63 00 00       	call   108400 <__udivdi3>
  102099:	83 c4 1c             	add    $0x1c,%esp
  10209c:	52                   	push   %edx
  10209d:	50                   	push   %eax
  10209e:	8d 83 90 8a ff ff    	lea    -0x7570(%ebx),%eax
  1020a4:	50                   	push   %eax
  1020a5:	e8 16 20 00 00       	call   1040c0 <debug_info>
		return (0);
  1020aa:	83 c4 20             	add    $0x20,%esp
  1020ad:	e9 04 ff ff ff       	jmp    101fb6 <tsc_init+0x276>
  1020b2:	2e 8d b4 26 00 00 00 	lea    %cs:0x0(%esi,%eiz,1),%esi
  1020b9:	00 
  1020ba:	8d b6 00 00 00 00    	lea    0x0(%esi),%esi

001020c0 <delay>:

/*
 * Wait for ms millisecond.
 */
void delay(uint32_t ms)
{
  1020c0:	55                   	push   %ebp
  1020c1:	e8 b3 f1 ff ff       	call   101279 <__x86.get_pc_thunk.bp>
  1020c6:	81 c5 2e ef 00 00    	add    $0xef2e,%ebp
  1020cc:	57                   	push   %edi
  1020cd:	56                   	push   %esi
  1020ce:	53                   	push   %ebx
  1020cf:	83 ec 1c             	sub    $0x1c,%esp
  1020d2:	8b 44 24 30          	mov    0x30(%esp),%eax
    volatile uint64_t ticks = tsc_per_ms * ms;
  1020d6:	8b b5 94 88 02 00    	mov    0x28894(%ebp),%esi
    volatile uint64_t start = rdtsc();
  1020dc:	89 eb                	mov    %ebp,%ebx
    volatile uint64_t ticks = tsc_per_ms * ms;
  1020de:	8b 8d 98 88 02 00    	mov    0x28898(%ebp),%ecx
  1020e4:	0f af c8             	imul   %eax,%ecx
  1020e7:	f7 e6                	mul    %esi
  1020e9:	01 ca                	add    %ecx,%edx
  1020eb:	89 04 24             	mov    %eax,(%esp)
  1020ee:	89 54 24 04          	mov    %edx,0x4(%esp)
    volatile uint64_t start = rdtsc();
  1020f2:	e8 f9 2c 00 00       	call   104df0 <rdtsc>
  1020f7:	89 44 24 08          	mov    %eax,0x8(%esp)
  1020fb:	89 54 24 0c          	mov    %edx,0xc(%esp)
    while (rdtsc() < start + ticks);
  1020ff:	90                   	nop
  102100:	89 eb                	mov    %ebp,%ebx
  102102:	e8 e9 2c 00 00       	call   104df0 <rdtsc>
  102107:	89 c3                	mov    %eax,%ebx
  102109:	89 d1                	mov    %edx,%ecx
  10210b:	8b 44 24 08          	mov    0x8(%esp),%eax
  10210f:	8b 54 24 0c          	mov    0xc(%esp),%edx
  102113:	8b 34 24             	mov    (%esp),%esi
  102116:	8b 7c 24 04          	mov    0x4(%esp),%edi
  10211a:	01 f0                	add    %esi,%eax
  10211c:	11 fa                	adc    %edi,%edx
  10211e:	39 c3                	cmp    %eax,%ebx
  102120:	19 d1                	sbb    %edx,%ecx
  102122:	72 dc                	jb     102100 <delay+0x40>
}
  102124:	83 c4 1c             	add    $0x1c,%esp
  102127:	5b                   	pop    %ebx
  102128:	5e                   	pop    %esi
  102129:	5f                   	pop    %edi
  10212a:	5d                   	pop    %ebp
  10212b:	c3                   	ret
  10212c:	8d 74 26 00          	lea    0x0(%esi,%eiz,1),%esi

00102130 <udelay>:

/*
 * Wait for us microsecond.
 */
void udelay(uint32_t us)
{
  102130:	55                   	push   %ebp
  102131:	e8 43 f1 ff ff       	call   101279 <__x86.get_pc_thunk.bp>
  102136:	81 c5 be ee 00 00    	add    $0xeebe,%ebp
  10213c:	57                   	push   %edi
  10213d:	56                   	push   %esi
  10213e:	53                   	push   %ebx
  10213f:	83 ec 1c             	sub    $0x1c,%esp
    volatile uint64_t ticks = tsc_per_ms / 1000 * us;
  102142:	8b 85 94 88 02 00    	mov    0x28894(%ebp),%eax
  102148:	8b 95 98 88 02 00    	mov    0x28898(%ebp),%edx
  10214e:	89 eb                	mov    %ebp,%ebx
{
  102150:	8b 74 24 30          	mov    0x30(%esp),%esi
    volatile uint64_t ticks = tsc_per_ms / 1000 * us;
  102154:	6a 00                	push   $0x0
  102156:	68 e8 03 00 00       	push   $0x3e8
  10215b:	52                   	push   %edx
  10215c:	50                   	push   %eax
  10215d:	e8 9e 62 00 00       	call   108400 <__udivdi3>
  102162:	83 c4 10             	add    $0x10,%esp
  102165:	89 d1                	mov    %edx,%ecx
  102167:	f7 e6                	mul    %esi
  102169:	0f af ce             	imul   %esi,%ecx
  10216c:	89 04 24             	mov    %eax,(%esp)
  10216f:	01 ca                	add    %ecx,%edx
  102171:	89 54 24 04          	mov    %edx,0x4(%esp)
    volatile uint64_t start = rdtsc();
  102175:	e8 76 2c 00 00       	call   104df0 <rdtsc>
  10217a:	89 44 24 08          	mov    %eax,0x8(%esp)
  10217e:	89 54 24 0c          	mov    %edx,0xc(%esp)
    while (rdtsc() < start + ticks);
  102182:	8d b6 00 00 00 00    	lea    0x0(%esi),%esi
  102188:	89 eb                	mov    %ebp,%ebx
  10218a:	e8 61 2c 00 00       	call   104df0 <rdtsc>
  10218f:	89 c3                	mov    %eax,%ebx
  102191:	89 d1                	mov    %edx,%ecx
  102193:	8b 44 24 08          	mov    0x8(%esp),%eax
  102197:	8b 54 24 0c          	mov    0xc(%esp),%edx
  10219b:	8b 34 24             	mov    (%esp),%esi
  10219e:	8b 7c 24 04          	mov    0x4(%esp),%edi
  1021a2:	01 f0                	add    %esi,%eax
  1021a4:	11 fa                	adc    %edi,%edx
  1021a6:	39 c3                	cmp    %eax,%ebx
  1021a8:	19 d1                	sbb    %edx,%ecx
  1021aa:	72 dc                	jb     102188 <udelay+0x58>
}
  1021ac:	83 c4 1c             	add    $0x1c,%esp
  1021af:	5b                   	pop    %ebx
  1021b0:	5e                   	pop    %esi
  1021b1:	5f                   	pop    %edi
  1021b2:	5d                   	pop    %ebp
  1021b3:	c3                   	ret
  1021b4:	66 90                	xchg   %ax,%ax
  1021b6:	66 90                	xchg   %ax,%ax
  1021b8:	66 90                	xchg   %ax,%ax
  1021ba:	66 90                	xchg   %ax,%ax
  1021bc:	66 90                	xchg   %ax,%ax
  1021be:	66 90                	xchg   %ax,%ax

001021c0 <Xdivide>:
	jmp	_alltraps

.text

/* exceptions  */
TRAPHANDLER_NOEC(Xdivide,	T_DIVIDE)
  1021c0:	6a 00                	push   $0x0
  1021c2:	6a 00                	push   $0x0
  1021c4:	e9 17 01 00 00       	jmp    1022e0 <_alltraps>
  1021c9:	90                   	nop

001021ca <Xdebug>:
TRAPHANDLER_NOEC(Xdebug,	T_DEBUG)
  1021ca:	6a 00                	push   $0x0
  1021cc:	6a 01                	push   $0x1
  1021ce:	e9 0d 01 00 00       	jmp    1022e0 <_alltraps>
  1021d3:	90                   	nop

001021d4 <Xnmi>:
TRAPHANDLER_NOEC(Xnmi,		T_NMI)
  1021d4:	6a 00                	push   $0x0
  1021d6:	6a 02                	push   $0x2
  1021d8:	e9 03 01 00 00       	jmp    1022e0 <_alltraps>
  1021dd:	90                   	nop

001021de <Xbrkpt>:
TRAPHANDLER_NOEC(Xbrkpt,	T_BRKPT)
  1021de:	6a 00                	push   $0x0
  1021e0:	6a 03                	push   $0x3
  1021e2:	e9 f9 00 00 00       	jmp    1022e0 <_alltraps>
  1021e7:	90                   	nop

001021e8 <Xoflow>:
TRAPHANDLER_NOEC(Xoflow,	T_OFLOW)
  1021e8:	6a 00                	push   $0x0
  1021ea:	6a 04                	push   $0x4
  1021ec:	e9 ef 00 00 00       	jmp    1022e0 <_alltraps>
  1021f1:	90                   	nop

001021f2 <Xbound>:
TRAPHANDLER_NOEC(Xbound,	T_BOUND)
  1021f2:	6a 00                	push   $0x0
  1021f4:	6a 05                	push   $0x5
  1021f6:	e9 e5 00 00 00       	jmp    1022e0 <_alltraps>
  1021fb:	90                   	nop

001021fc <Xillop>:
TRAPHANDLER_NOEC(Xillop,	T_ILLOP)
  1021fc:	6a 00                	push   $0x0
  1021fe:	6a 06                	push   $0x6
  102200:	e9 db 00 00 00       	jmp    1022e0 <_alltraps>
  102205:	90                   	nop

00102206 <Xdevice>:
TRAPHANDLER_NOEC(Xdevice,	T_DEVICE)
  102206:	6a 00                	push   $0x0
  102208:	6a 07                	push   $0x7
  10220a:	e9 d1 00 00 00       	jmp    1022e0 <_alltraps>
  10220f:	90                   	nop

00102210 <Xdblflt>:
TRAPHANDLER     (Xdblflt,	T_DBLFLT)
  102210:	6a 08                	push   $0x8
  102212:	e9 c9 00 00 00       	jmp    1022e0 <_alltraps>
  102217:	90                   	nop

00102218 <Xcoproc>:
TRAPHANDLER_NOEC(Xcoproc,	T_COPROC)
  102218:	6a 00                	push   $0x0
  10221a:	6a 09                	push   $0x9
  10221c:	e9 bf 00 00 00       	jmp    1022e0 <_alltraps>
  102221:	90                   	nop

00102222 <Xtss>:
TRAPHANDLER     (Xtss,		T_TSS)
  102222:	6a 0a                	push   $0xa
  102224:	e9 b7 00 00 00       	jmp    1022e0 <_alltraps>
  102229:	90                   	nop

0010222a <Xsegnp>:
TRAPHANDLER     (Xsegnp,	T_SEGNP)
  10222a:	6a 0b                	push   $0xb
  10222c:	e9 af 00 00 00       	jmp    1022e0 <_alltraps>
  102231:	90                   	nop

00102232 <Xstack>:
TRAPHANDLER     (Xstack,	T_STACK)
  102232:	6a 0c                	push   $0xc
  102234:	e9 a7 00 00 00       	jmp    1022e0 <_alltraps>
  102239:	90                   	nop

0010223a <Xgpflt>:
TRAPHANDLER     (Xgpflt,	T_GPFLT)
  10223a:	6a 0d                	push   $0xd
  10223c:	e9 9f 00 00 00       	jmp    1022e0 <_alltraps>
  102241:	90                   	nop

00102242 <Xpgflt>:
TRAPHANDLER     (Xpgflt,	T_PGFLT)
  102242:	6a 0e                	push   $0xe
  102244:	e9 97 00 00 00       	jmp    1022e0 <_alltraps>
  102249:	90                   	nop

0010224a <Xres>:
TRAPHANDLER_NOEC(Xres,		T_RES)
  10224a:	6a 00                	push   $0x0
  10224c:	6a 0f                	push   $0xf
  10224e:	e9 8d 00 00 00       	jmp    1022e0 <_alltraps>
  102253:	90                   	nop

00102254 <Xfperr>:
TRAPHANDLER_NOEC(Xfperr,	T_FPERR)
  102254:	6a 00                	push   $0x0
  102256:	6a 10                	push   $0x10
  102258:	e9 83 00 00 00       	jmp    1022e0 <_alltraps>
  10225d:	90                   	nop

0010225e <Xalign>:
TRAPHANDLER     (Xalign,	T_ALIGN)
  10225e:	6a 11                	push   $0x11
  102260:	eb 7e                	jmp    1022e0 <_alltraps>

00102262 <Xmchk>:
TRAPHANDLER_NOEC(Xmchk,		T_MCHK)
  102262:	6a 00                	push   $0x0
  102264:	6a 12                	push   $0x12
  102266:	eb 78                	jmp    1022e0 <_alltraps>

00102268 <Xirq_timer>:

/* ISA interrupts  */
TRAPHANDLER_NOEC(Xirq_timer,	T_IRQ0 + IRQ_TIMER)
  102268:	6a 00                	push   $0x0
  10226a:	6a 20                	push   $0x20
  10226c:	eb 72                	jmp    1022e0 <_alltraps>

0010226e <Xirq_kbd>:
TRAPHANDLER_NOEC(Xirq_kbd,	T_IRQ0 + IRQ_KBD)
  10226e:	6a 00                	push   $0x0
  102270:	6a 21                	push   $0x21
  102272:	eb 6c                	jmp    1022e0 <_alltraps>

00102274 <Xirq_slave>:
TRAPHANDLER_NOEC(Xirq_slave,	T_IRQ0 + IRQ_SLAVE)
  102274:	6a 00                	push   $0x0
  102276:	6a 22                	push   $0x22
  102278:	eb 66                	jmp    1022e0 <_alltraps>

0010227a <Xirq_serial2>:
TRAPHANDLER_NOEC(Xirq_serial2,	T_IRQ0 + IRQ_SERIAL24)
  10227a:	6a 00                	push   $0x0
  10227c:	6a 23                	push   $0x23
  10227e:	eb 60                	jmp    1022e0 <_alltraps>

00102280 <Xirq_serial1>:
TRAPHANDLER_NOEC(Xirq_serial1,	T_IRQ0 + IRQ_SERIAL13)
  102280:	6a 00                	push   $0x0
  102282:	6a 24                	push   $0x24
  102284:	eb 5a                	jmp    1022e0 <_alltraps>

00102286 <Xirq_lpt>:
TRAPHANDLER_NOEC(Xirq_lpt,	T_IRQ0 + IRQ_LPT2)
  102286:	6a 00                	push   $0x0
  102288:	6a 25                	push   $0x25
  10228a:	eb 54                	jmp    1022e0 <_alltraps>

0010228c <Xirq_floppy>:
TRAPHANDLER_NOEC(Xirq_floppy,	T_IRQ0 + IRQ_FLOPPY)
  10228c:	6a 00                	push   $0x0
  10228e:	6a 26                	push   $0x26
  102290:	eb 4e                	jmp    1022e0 <_alltraps>

00102292 <Xirq_spurious>:
TRAPHANDLER_NOEC(Xirq_spurious,	T_IRQ0 + IRQ_SPURIOUS)
  102292:	6a 00                	push   $0x0
  102294:	6a 27                	push   $0x27
  102296:	eb 48                	jmp    1022e0 <_alltraps>

00102298 <Xirq_rtc>:
TRAPHANDLER_NOEC(Xirq_rtc,	T_IRQ0 + IRQ_RTC)
  102298:	6a 00                	push   $0x0
  10229a:	6a 28                	push   $0x28
  10229c:	eb 42                	jmp    1022e0 <_alltraps>

0010229e <Xirq9>:
TRAPHANDLER_NOEC(Xirq9,		T_IRQ0 + 9)
  10229e:	6a 00                	push   $0x0
  1022a0:	6a 29                	push   $0x29
  1022a2:	eb 3c                	jmp    1022e0 <_alltraps>

001022a4 <Xirq10>:
TRAPHANDLER_NOEC(Xirq10,	T_IRQ0 + 10)
  1022a4:	6a 00                	push   $0x0
  1022a6:	6a 2a                	push   $0x2a
  1022a8:	eb 36                	jmp    1022e0 <_alltraps>

001022aa <Xirq11>:
TRAPHANDLER_NOEC(Xirq11,	T_IRQ0 + 11)
  1022aa:	6a 00                	push   $0x0
  1022ac:	6a 2b                	push   $0x2b
  1022ae:	eb 30                	jmp    1022e0 <_alltraps>

001022b0 <Xirq_mouse>:
TRAPHANDLER_NOEC(Xirq_mouse,	T_IRQ0 + IRQ_MOUSE)
  1022b0:	6a 00                	push   $0x0
  1022b2:	6a 2c                	push   $0x2c
  1022b4:	eb 2a                	jmp    1022e0 <_alltraps>

001022b6 <Xirq_coproc>:
TRAPHANDLER_NOEC(Xirq_coproc,	T_IRQ0 + IRQ_COPROCESSOR)
  1022b6:	6a 00                	push   $0x0
  1022b8:	6a 2d                	push   $0x2d
  1022ba:	eb 24                	jmp    1022e0 <_alltraps>

001022bc <Xirq_ide1>:
TRAPHANDLER_NOEC(Xirq_ide1,	T_IRQ0 + IRQ_IDE1)
  1022bc:	6a 00                	push   $0x0
  1022be:	6a 2e                	push   $0x2e
  1022c0:	eb 1e                	jmp    1022e0 <_alltraps>

001022c2 <Xirq_ide2>:
TRAPHANDLER_NOEC(Xirq_ide2,	T_IRQ0 + IRQ_IDE2)
  1022c2:	6a 00                	push   $0x0
  1022c4:	6a 2f                	push   $0x2f
  1022c6:	eb 18                	jmp    1022e0 <_alltraps>

001022c8 <Xsyscall>:

/* syscall */
TRAPHANDLER_NOEC(Xsyscall,	T_SYSCALL)
  1022c8:	6a 00                	push   $0x0
  1022ca:	6a 30                	push   $0x30
  1022cc:	eb 12                	jmp    1022e0 <_alltraps>

001022ce <Xdefault>:

/* default ? */
TRAPHANDLER     (Xdefault,	T_DEFAULT)
  1022ce:	68 fe 00 00 00       	push   $0xfe
  1022d3:	eb 0b                	jmp    1022e0 <_alltraps>
  1022d5:	2e 8d b4 26 00 00 00 	lea    %cs:0x0(%esi,%eiz,1),%esi
  1022dc:	00 
  1022dd:	8d 76 00             	lea    0x0(%esi),%esi

001022e0 <_alltraps>:

	.globl _alltraps
	.type _alltraps, @function
	.p2align 4, 0x90	/* 16-byte alignment, nop filled */
_alltraps:
	cli			# make sure there is no nested trap
  1022e0:	fa                   	cli
	cld
  1022e1:	fc                   	cld

	pushl	%ds		# build context
  1022e2:	1e                   	push   %ds
	pushl	%es
  1022e3:	06                   	push   %es
	pushal
  1022e4:	60                   	pusha

	movl	$CPU_GDT_KDATA, %eax	# load kernel's data segment
  1022e5:	b8 10 00 00 00       	mov    $0x10,%eax
	movw	%ax, %ds
  1022ea:	8e d8                	mov    %eax,%ds
	movw	%ax, %es
  1022ec:	8e c0                	mov    %eax,%es

	pushl	%esp		# pass pointer to this trapframe
  1022ee:	54                   	push   %esp

	call	trap		# and call trap (does not return)
  1022ef:	e8 dc 5b 00 00       	call   107ed0 <trap>

1:	hlt			# should never get here; just spin...
  1022f4:	f4                   	hlt
  1022f5:	2e 8d b4 26 00 00 00 	lea    %cs:0x0(%esi,%eiz,1),%esi
  1022fc:	00 
  1022fd:	8d 76 00             	lea    0x0(%esi),%esi

00102300 <trap_return>:
//
	.globl trap_return
	.type trap_return, @function
	.p2align 4, 0x90	/* 16-byte alignment, nop filled */
trap_return:
	movl	4(%esp), %esp	// reset stack pointer to point to trap frame
  102300:	8b 64 24 04          	mov    0x4(%esp),%esp
	popal			// restore general-purpose registers except esp
  102304:	61                   	popa
	popl	%es		// restore data segment registers
  102305:	07                   	pop    %es
	popl	%ds
  102306:	1f                   	pop    %ds
	addl	$8, %esp	// skip tf_trapno and tf_errcode
  102307:	83 c4 08             	add    $0x8,%esp
	iret			// return from trap handler
  10230a:	cf                   	iret
  10230b:	66 90                	xchg   %ax,%ax
  10230d:	66 90                	xchg   %ax,%ax
  10230f:	90                   	nop

00102310 <acpi_probe_rsdp>:

    return NULL;
}

acpi_rsdp_t *acpi_probe_rsdp(void)
{
  102310:	57                   	push   %edi
  102311:	56                   	push   %esi
  102312:	53                   	push   %ebx
    uint8_t *bda;
    uint32_t p;
    acpi_rsdp_t *rsdp;

    bda = (uint8_t *) 0x400;
    if ((p = ((bda[0x0F] << 8) | bda[0x0E]) << 4)) {
  102313:	0f b6 05 0f 04 00 00 	movzbl 0x40f,%eax
  10231a:	0f b6 15 0e 04 00 00 	movzbl 0x40e,%edx
  102321:	c1 e0 08             	shl    $0x8,%eax
  102324:	09 d0                	or     %edx,%eax
  102326:	c1 e0 04             	shl    $0x4,%eax
  102329:	74 4d                	je     102378 <acpi_probe_rsdp+0x68>
        if (*(uint32_t *) p == ACPI_RSDP_SIG1 &&
  10232b:	81 38 52 53 44 20    	cmpl   $0x20445352,(%eax)
    e = addr + length;
  102331:	8d 88 00 04 00 00    	lea    0x400(%eax),%ecx
        if (*(uint32_t *) p == ACPI_RSDP_SIG1 &&
  102337:	74 16                	je     10234f <acpi_probe_rsdp+0x3f>
  102339:	8d b4 26 00 00 00 00 	lea    0x0(%esi,%eiz,1),%esi
    for (p = addr; p < e; p += 16) {
  102340:	83 c0 10             	add    $0x10,%eax
  102343:	39 c8                	cmp    %ecx,%eax
  102345:	73 31                	jae    102378 <acpi_probe_rsdp+0x68>
        if (*(uint32_t *) p == ACPI_RSDP_SIG1 &&
  102347:	81 38 52 53 44 20    	cmpl   $0x20445352,(%eax)
  10234d:	75 f1                	jne    102340 <acpi_probe_rsdp+0x30>
  10234f:	81 78 04 50 54 52 20 	cmpl   $0x20525450,0x4(%eax)
  102356:	75 e8                	jne    102340 <acpi_probe_rsdp+0x30>
  102358:	89 c2                	mov    %eax,%edx
    sum = 0;
  10235a:	31 db                	xor    %ebx,%ebx
  10235c:	8d 70 24             	lea    0x24(%eax),%esi
  10235f:	90                   	nop
        sum += addr[i];
  102360:	0f b6 3a             	movzbl (%edx),%edi
    for (i = 0; i < len; i++) {
  102363:	83 c2 01             	add    $0x1,%edx
        sum += addr[i];
  102366:	01 fb                	add    %edi,%ebx
    for (i = 0; i < len; i++) {
  102368:	39 f2                	cmp    %esi,%edx
  10236a:	75 f4                	jne    102360 <acpi_probe_rsdp+0x50>
            *(uint32_t *) (p + 4) == ACPI_RSDP_SIG2 &&
  10236c:	84 db                	test   %bl,%bl
  10236e:	75 d0                	jne    102340 <acpi_probe_rsdp+0x30>
        if ((rsdp = acpi_probe_rsdp_aux((uint8_t *) p, 1024)))
            return rsdp;
    }

    return acpi_probe_rsdp_aux((uint8_t *) 0xE0000, 0x1FFFF);
}
  102370:	5b                   	pop    %ebx
  102371:	5e                   	pop    %esi
  102372:	5f                   	pop    %edi
  102373:	c3                   	ret
  102374:	8d 74 26 00          	lea    0x0(%esi,%eiz,1),%esi
  102378:	b8 00 00 0e 00       	mov    $0xe0000,%eax
  10237d:	eb 0b                	jmp    10238a <acpi_probe_rsdp+0x7a>
  10237f:	90                   	nop
    for (p = addr; p < e; p += 16) {
  102380:	83 c0 10             	add    $0x10,%eax
  102383:	3d 00 00 10 00       	cmp    $0x100000,%eax
  102388:	74 38                	je     1023c2 <acpi_probe_rsdp+0xb2>
        if (*(uint32_t *) p == ACPI_RSDP_SIG1 &&
  10238a:	81 38 52 53 44 20    	cmpl   $0x20445352,(%eax)
  102390:	75 ee                	jne    102380 <acpi_probe_rsdp+0x70>
  102392:	81 78 04 50 54 52 20 	cmpl   $0x20525450,0x4(%eax)
  102399:	75 e5                	jne    102380 <acpi_probe_rsdp+0x70>
  10239b:	89 c2                	mov    %eax,%edx
    sum = 0;
  10239d:	31 c9                	xor    %ecx,%ecx
  10239f:	8d 70 24             	lea    0x24(%eax),%esi
  1023a2:	8d b6 00 00 00 00    	lea    0x0(%esi),%esi
        sum += addr[i];
  1023a8:	0f b6 1a             	movzbl (%edx),%ebx
    for (i = 0; i < len; i++) {
  1023ab:	83 c2 01             	add    $0x1,%edx
        sum += addr[i];
  1023ae:	01 d9                	add    %ebx,%ecx
    for (i = 0; i < len; i++) {
  1023b0:	39 d6                	cmp    %edx,%esi
  1023b2:	75 f4                	jne    1023a8 <acpi_probe_rsdp+0x98>
            *(uint32_t *) (p + 4) == ACPI_RSDP_SIG2 &&
  1023b4:	84 c9                	test   %cl,%cl
  1023b6:	74 b8                	je     102370 <acpi_probe_rsdp+0x60>
    for (p = addr; p < e; p += 16) {
  1023b8:	83 c0 10             	add    $0x10,%eax
  1023bb:	3d 00 00 10 00       	cmp    $0x100000,%eax
  1023c0:	75 c8                	jne    10238a <acpi_probe_rsdp+0x7a>
}
  1023c2:	5b                   	pop    %ebx
    return NULL;
  1023c3:	31 c0                	xor    %eax,%eax
}
  1023c5:	5e                   	pop    %esi
  1023c6:	5f                   	pop    %edi
  1023c7:	c3                   	ret
  1023c8:	2e 8d b4 26 00 00 00 	lea    %cs:0x0(%esi,%eiz,1),%esi
  1023cf:	00 

001023d0 <acpi_probe_rsdt>:

acpi_rsdt_t *acpi_probe_rsdt(acpi_rsdp_t *rsdp)
{
  1023d0:	56                   	push   %esi
  1023d1:	53                   	push   %ebx
  1023d2:	e8 cb df ff ff       	call   1003a2 <__x86.get_pc_thunk.bx>
  1023d7:	81 c3 1d ec 00 00    	add    $0xec1d,%ebx
  1023dd:	83 ec 04             	sub    $0x4,%esp
  1023e0:	8b 74 24 10          	mov    0x10(%esp),%esi
    KERN_ASSERT(rsdp != NULL);
  1023e4:	85 f6                	test   %esi,%esi
  1023e6:	74 50                	je     102438 <acpi_probe_rsdt+0x68>

    acpi_rsdt_t *rsdt = (acpi_rsdt_t *) (rsdp->rsdt_addr);
  1023e8:	8b 5e 10             	mov    0x10(%esi),%ebx
  1023eb:	89 d8                	mov    %ebx,%eax
    if (rsdt == NULL)
  1023ed:	85 db                	test   %ebx,%ebx
  1023ef:	74 2a                	je     10241b <acpi_probe_rsdt+0x4b>
        return NULL;
    if (rsdt->sig == ACPI_RSDT_SIG && sum((uint8_t *) rsdt, rsdt->length) == 0) {
  1023f1:	81 3b 52 53 44 54    	cmpl   $0x54445352,(%ebx)
  1023f7:	75 2f                	jne    102428 <acpi_probe_rsdt+0x58>
  1023f9:	8b 73 04             	mov    0x4(%ebx),%esi
    for (i = 0; i < len; i++) {
  1023fc:	85 f6                	test   %esi,%esi
  1023fe:	7e 1b                	jle    10241b <acpi_probe_rsdt+0x4b>
  102400:	01 de                	add    %ebx,%esi
    sum = 0;
  102402:	31 d2                	xor    %edx,%edx
  102404:	8d 74 26 00          	lea    0x0(%esi,%eiz,1),%esi
        sum += addr[i];
  102408:	0f b6 08             	movzbl (%eax),%ecx
    for (i = 0; i < len; i++) {
  10240b:	83 c0 01             	add    $0x1,%eax
        sum += addr[i];
  10240e:	01 ca                	add    %ecx,%edx
    for (i = 0; i < len; i++) {
  102410:	39 c6                	cmp    %eax,%esi
  102412:	75 f4                	jne    102408 <acpi_probe_rsdt+0x38>
        return NULL;
  102414:	31 c0                	xor    %eax,%eax
  102416:	84 d2                	test   %dl,%dl
  102418:	0f 45 d8             	cmovne %eax,%ebx
        return rsdt;
    }

    return NULL;
}
  10241b:	83 c4 04             	add    $0x4,%esp
  10241e:	89 d8                	mov    %ebx,%eax
  102420:	5b                   	pop    %ebx
  102421:	5e                   	pop    %esi
  102422:	c3                   	ret
  102423:	2e 8d 74 26 00       	lea    %cs:0x0(%esi,%eiz,1),%esi
        return NULL;
  102428:	31 db                	xor    %ebx,%ebx
}
  10242a:	83 c4 04             	add    $0x4,%esp
  10242d:	89 d8                	mov    %ebx,%eax
  10242f:	5b                   	pop    %ebx
  102430:	5e                   	pop    %esi
  102431:	c3                   	ret
  102432:	8d b6 00 00 00 00    	lea    0x0(%esi),%esi
    KERN_ASSERT(rsdp != NULL);
  102438:	8d 83 12 82 ff ff    	lea    -0x7dee(%ebx),%eax
  10243e:	50                   	push   %eax
  10243f:	8d 83 b5 80 ff ff    	lea    -0x7f4b(%ebx),%eax
  102445:	50                   	push   %eax
  102446:	8d 83 1f 82 ff ff    	lea    -0x7de1(%ebx),%eax
  10244c:	6a 33                	push   $0x33
  10244e:	50                   	push   %eax
  10244f:	e8 0c 1d 00 00       	call   104160 <debug_panic>
  102454:	83 c4 10             	add    $0x10,%esp
  102457:	eb 8f                	jmp    1023e8 <acpi_probe_rsdt+0x18>
  102459:	8d b4 26 00 00 00 00 	lea    0x0(%esi,%eiz,1),%esi

00102460 <acpi_probe_rsdt_ent>:

acpi_sdt_hdr_t *acpi_probe_rsdt_ent(acpi_rsdt_t *rsdt, const uint32_t sig)
{
  102460:	55                   	push   %ebp
  102461:	57                   	push   %edi
  102462:	56                   	push   %esi
  102463:	53                   	push   %ebx
  102464:	e8 39 df ff ff       	call   1003a2 <__x86.get_pc_thunk.bx>
  102469:	81 c3 8b eb 00 00    	add    $0xeb8b,%ebx
  10246f:	83 ec 1c             	sub    $0x1c,%esp
  102472:	8b 7c 24 30          	mov    0x30(%esp),%edi
    KERN_ASSERT(rsdt != NULL);
  102476:	85 ff                	test   %edi,%edi
  102478:	74 62                	je     1024dc <acpi_probe_rsdt_ent+0x7c>

    uint8_t *p = (uint8_t *) &rsdt->ent[0];
  10247a:	8d 57 24             	lea    0x24(%edi),%edx
    uint8_t *e = (uint8_t *) rsdt + rsdt->length;
  10247d:	03 7f 04             	add    0x4(%edi),%edi

    int i;
    for (i = 0; p < e; i++) {
  102480:	39 fa                	cmp    %edi,%edx
  102482:	73 4c                	jae    1024d0 <acpi_probe_rsdt_ent+0x70>
  102484:	8b 5c 24 34          	mov    0x34(%esp),%ebx
  102488:	eb 0d                	jmp    102497 <acpi_probe_rsdt_ent+0x37>
  10248a:	8d b6 00 00 00 00    	lea    0x0(%esi),%esi
  102490:	83 c2 04             	add    $0x4,%edx
  102493:	39 fa                	cmp    %edi,%edx
  102495:	73 39                	jae    1024d0 <acpi_probe_rsdt_ent+0x70>
        acpi_sdt_hdr_t *hdr = (acpi_sdt_hdr_t *) (rsdt->ent[i]);
  102497:	8b 02                	mov    (%edx),%eax
  102499:	89 c5                	mov    %eax,%ebp
        if (hdr->sig == sig && sum((uint8_t *) hdr, hdr->length) == 0) {
  10249b:	39 18                	cmp    %ebx,(%eax)
  10249d:	75 f1                	jne    102490 <acpi_probe_rsdt_ent+0x30>
  10249f:	8b 70 04             	mov    0x4(%eax),%esi
    for (i = 0; i < len; i++) {
  1024a2:	85 f6                	test   %esi,%esi
  1024a4:	7e 1e                	jle    1024c4 <acpi_probe_rsdt_ent+0x64>
    sum = 0;
  1024a6:	89 7c 24 0c          	mov    %edi,0xc(%esp)
  1024aa:	01 c6                	add    %eax,%esi
  1024ac:	31 c9                	xor    %ecx,%ecx
  1024ae:	66 90                	xchg   %ax,%ax
        sum += addr[i];
  1024b0:	0f b6 38             	movzbl (%eax),%edi
    for (i = 0; i < len; i++) {
  1024b3:	83 c0 01             	add    $0x1,%eax
        sum += addr[i];
  1024b6:	01 f9                	add    %edi,%ecx
    for (i = 0; i < len; i++) {
  1024b8:	39 c6                	cmp    %eax,%esi
  1024ba:	75 f4                	jne    1024b0 <acpi_probe_rsdt_ent+0x50>
        if (hdr->sig == sig && sum((uint8_t *) hdr, hdr->length) == 0) {
  1024bc:	8b 7c 24 0c          	mov    0xc(%esp),%edi
  1024c0:	84 c9                	test   %cl,%cl
  1024c2:	75 cc                	jne    102490 <acpi_probe_rsdt_ent+0x30>
        }
        p = (uint8_t *) &rsdt->ent[i + 1];
    }

    return NULL;
}
  1024c4:	83 c4 1c             	add    $0x1c,%esp
  1024c7:	89 e8                	mov    %ebp,%eax
  1024c9:	5b                   	pop    %ebx
  1024ca:	5e                   	pop    %esi
  1024cb:	5f                   	pop    %edi
  1024cc:	5d                   	pop    %ebp
  1024cd:	c3                   	ret
  1024ce:	66 90                	xchg   %ax,%ax
  1024d0:	83 c4 1c             	add    $0x1c,%esp
    return NULL;
  1024d3:	31 ed                	xor    %ebp,%ebp
}
  1024d5:	5b                   	pop    %ebx
  1024d6:	89 e8                	mov    %ebp,%eax
  1024d8:	5e                   	pop    %esi
  1024d9:	5f                   	pop    %edi
  1024da:	5d                   	pop    %ebp
  1024db:	c3                   	ret
    KERN_ASSERT(rsdt != NULL);
  1024dc:	8d 83 2f 82 ff ff    	lea    -0x7dd1(%ebx),%eax
  1024e2:	50                   	push   %eax
  1024e3:	8d 83 b5 80 ff ff    	lea    -0x7f4b(%ebx),%eax
  1024e9:	50                   	push   %eax
  1024ea:	8d 83 1f 82 ff ff    	lea    -0x7de1(%ebx),%eax
  1024f0:	6a 41                	push   $0x41
  1024f2:	50                   	push   %eax
  1024f3:	e8 68 1c 00 00       	call   104160 <debug_panic>
  1024f8:	83 c4 10             	add    $0x10,%esp
  1024fb:	e9 7a ff ff ff       	jmp    10247a <acpi_probe_rsdt_ent+0x1a>

00102500 <acpi_probe_xsdt>:

acpi_xsdt_t *acpi_probe_xsdt(acpi_rsdp_t *rsdp)
{
  102500:	56                   	push   %esi
  102501:	53                   	push   %ebx
  102502:	e8 9b de ff ff       	call   1003a2 <__x86.get_pc_thunk.bx>
  102507:	81 c3 ed ea 00 00    	add    $0xeaed,%ebx
  10250d:	83 ec 04             	sub    $0x4,%esp
  102510:	8b 74 24 10          	mov    0x10(%esp),%esi
    KERN_ASSERT(rsdp != NULL);
  102514:	85 f6                	test   %esi,%esi
  102516:	74 50                	je     102568 <acpi_probe_xsdt+0x68>

    acpi_xsdt_t *xsdt = (acpi_xsdt_t *) (uintptr_t) rsdp->xsdt_addr;
  102518:	8b 5e 18             	mov    0x18(%esi),%ebx
  10251b:	89 d8                	mov    %ebx,%eax
    if (xsdt == NULL)
  10251d:	85 db                	test   %ebx,%ebx
  10251f:	74 2a                	je     10254b <acpi_probe_xsdt+0x4b>
        return NULL;
    if (xsdt->sig == ACPI_XSDT_SIG && sum((uint8_t *) xsdt, xsdt->length) == 0) {
  102521:	81 3b 58 53 44 54    	cmpl   $0x54445358,(%ebx)
  102527:	75 2f                	jne    102558 <acpi_probe_xsdt+0x58>
  102529:	8b 73 04             	mov    0x4(%ebx),%esi
    for (i = 0; i < len; i++) {
  10252c:	85 f6                	test   %esi,%esi
  10252e:	7e 1b                	jle    10254b <acpi_probe_xsdt+0x4b>
  102530:	01 de                	add    %ebx,%esi
    sum = 0;
  102532:	31 d2                	xor    %edx,%edx
  102534:	8d 74 26 00          	lea    0x0(%esi,%eiz,1),%esi
        sum += addr[i];
  102538:	0f b6 08             	movzbl (%eax),%ecx
    for (i = 0; i < len; i++) {
  10253b:	83 c0 01             	add    $0x1,%eax
        sum += addr[i];
  10253e:	01 ca                	add    %ecx,%edx
    for (i = 0; i < len; i++) {
  102540:	39 c6                	cmp    %eax,%esi
  102542:	75 f4                	jne    102538 <acpi_probe_xsdt+0x38>
        return NULL;
  102544:	31 c0                	xor    %eax,%eax
  102546:	84 d2                	test   %dl,%dl
  102548:	0f 45 d8             	cmovne %eax,%ebx
        return xsdt;
    }

    return NULL;
}
  10254b:	83 c4 04             	add    $0x4,%esp
  10254e:	89 d8                	mov    %ebx,%eax
  102550:	5b                   	pop    %ebx
  102551:	5e                   	pop    %esi
  102552:	c3                   	ret
  102553:	2e 8d 74 26 00       	lea    %cs:0x0(%esi,%eiz,1),%esi
        return NULL;
  102558:	31 db                	xor    %ebx,%ebx
}
  10255a:	83 c4 04             	add    $0x4,%esp
  10255d:	89 d8                	mov    %ebx,%eax
  10255f:	5b                   	pop    %ebx
  102560:	5e                   	pop    %esi
  102561:	c3                   	ret
  102562:	8d b6 00 00 00 00    	lea    0x0(%esi),%esi
    KERN_ASSERT(rsdp != NULL);
  102568:	8d 83 12 82 ff ff    	lea    -0x7dee(%ebx),%eax
  10256e:	50                   	push   %eax
  10256f:	8d 83 b5 80 ff ff    	lea    -0x7f4b(%ebx),%eax
  102575:	50                   	push   %eax
  102576:	8d 83 1f 82 ff ff    	lea    -0x7de1(%ebx),%eax
  10257c:	6a 54                	push   $0x54
  10257e:	50                   	push   %eax
  10257f:	e8 dc 1b 00 00       	call   104160 <debug_panic>
  102584:	83 c4 10             	add    $0x10,%esp
  102587:	eb 8f                	jmp    102518 <acpi_probe_xsdt+0x18>
  102589:	8d b4 26 00 00 00 00 	lea    0x0(%esi,%eiz,1),%esi

00102590 <acpi_probe_xsdt_ent>:

acpi_sdt_hdr_t *acpi_probe_xsdt_ent(acpi_xsdt_t *xsdt, const uint32_t sig)
{
  102590:	55                   	push   %ebp
  102591:	57                   	push   %edi
  102592:	56                   	push   %esi
  102593:	53                   	push   %ebx
  102594:	e8 09 de ff ff       	call   1003a2 <__x86.get_pc_thunk.bx>
  102599:	81 c3 5b ea 00 00    	add    $0xea5b,%ebx
  10259f:	83 ec 1c             	sub    $0x1c,%esp
  1025a2:	8b 7c 24 30          	mov    0x30(%esp),%edi
    KERN_ASSERT(xsdt != NULL);
  1025a6:	85 ff                	test   %edi,%edi
  1025a8:	74 62                	je     10260c <acpi_probe_xsdt_ent+0x7c>

    uint8_t *p = (uint8_t *) &xsdt->ent[0];
  1025aa:	8d 57 24             	lea    0x24(%edi),%edx
    uint8_t *e = (uint8_t *) xsdt + xsdt->length;
  1025ad:	03 7f 04             	add    0x4(%edi),%edi

    int i;
    for (i = 0; p < e; i++) {
  1025b0:	39 fa                	cmp    %edi,%edx
  1025b2:	73 4c                	jae    102600 <acpi_probe_xsdt_ent+0x70>
  1025b4:	8b 5c 24 34          	mov    0x34(%esp),%ebx
  1025b8:	eb 0d                	jmp    1025c7 <acpi_probe_xsdt_ent+0x37>
  1025ba:	8d b6 00 00 00 00    	lea    0x0(%esi),%esi
  1025c0:	83 c2 08             	add    $0x8,%edx
  1025c3:	39 fa                	cmp    %edi,%edx
  1025c5:	73 39                	jae    102600 <acpi_probe_xsdt_ent+0x70>
        acpi_sdt_hdr_t *hdr = (acpi_sdt_hdr_t *) (uintptr_t) xsdt->ent[i];
  1025c7:	8b 02                	mov    (%edx),%eax
  1025c9:	89 c5                	mov    %eax,%ebp
        if (hdr->sig == sig && sum((uint8_t *) hdr, hdr->length) == 0) {
  1025cb:	39 18                	cmp    %ebx,(%eax)
  1025cd:	75 f1                	jne    1025c0 <acpi_probe_xsdt_ent+0x30>
  1025cf:	8b 70 04             	mov    0x4(%eax),%esi
    for (i = 0; i < len; i++) {
  1025d2:	85 f6                	test   %esi,%esi
  1025d4:	7e 1e                	jle    1025f4 <acpi_probe_xsdt_ent+0x64>
    sum = 0;
  1025d6:	89 7c 24 0c          	mov    %edi,0xc(%esp)
  1025da:	01 c6                	add    %eax,%esi
  1025dc:	31 c9                	xor    %ecx,%ecx
  1025de:	66 90                	xchg   %ax,%ax
        sum += addr[i];
  1025e0:	0f b6 38             	movzbl (%eax),%edi
    for (i = 0; i < len; i++) {
  1025e3:	83 c0 01             	add    $0x1,%eax
        sum += addr[i];
  1025e6:	01 f9                	add    %edi,%ecx
    for (i = 0; i < len; i++) {
  1025e8:	39 c6                	cmp    %eax,%esi
  1025ea:	75 f4                	jne    1025e0 <acpi_probe_xsdt_ent+0x50>
        if (hdr->sig == sig && sum((uint8_t *) hdr, hdr->length) == 0) {
  1025ec:	8b 7c 24 0c          	mov    0xc(%esp),%edi
  1025f0:	84 c9                	test   %cl,%cl
  1025f2:	75 cc                	jne    1025c0 <acpi_probe_xsdt_ent+0x30>
        }
        p = (uint8_t *) &xsdt->ent[i + 1];
    }

    return NULL;
}
  1025f4:	83 c4 1c             	add    $0x1c,%esp
  1025f7:	89 e8                	mov    %ebp,%eax
  1025f9:	5b                   	pop    %ebx
  1025fa:	5e                   	pop    %esi
  1025fb:	5f                   	pop    %edi
  1025fc:	5d                   	pop    %ebp
  1025fd:	c3                   	ret
  1025fe:	66 90                	xchg   %ax,%ax
  102600:	83 c4 1c             	add    $0x1c,%esp
    return NULL;
  102603:	31 ed                	xor    %ebp,%ebp
}
  102605:	5b                   	pop    %ebx
  102606:	89 e8                	mov    %ebp,%eax
  102608:	5e                   	pop    %esi
  102609:	5f                   	pop    %edi
  10260a:	5d                   	pop    %ebp
  10260b:	c3                   	ret
    KERN_ASSERT(xsdt != NULL);
  10260c:	8d 83 3c 82 ff ff    	lea    -0x7dc4(%ebx),%eax
  102612:	50                   	push   %eax
  102613:	8d 83 b5 80 ff ff    	lea    -0x7f4b(%ebx),%eax
  102619:	50                   	push   %eax
  10261a:	8d 83 1f 82 ff ff    	lea    -0x7de1(%ebx),%eax
  102620:	6a 62                	push   $0x62
  102622:	50                   	push   %eax
  102623:	e8 38 1b 00 00       	call   104160 <debug_panic>
  102628:	83 c4 10             	add    $0x10,%esp
  10262b:	e9 7a ff ff ff       	jmp    1025aa <acpi_probe_xsdt_ent+0x1a>

00102630 <lapic_register>:
{
}

void lapic_register(uintptr_t lapic_addr)
{
    lapic = (lapic_t *) lapic_addr;
  102630:	e8 65 dd ff ff       	call   10039a <__x86.get_pc_thunk.ax>
  102635:	05 bf e9 00 00       	add    $0xe9bf,%eax
  10263a:	8b 54 24 04          	mov    0x4(%esp),%edx
  10263e:	89 90 9c 88 02 00    	mov    %edx,0x2889c(%eax)
}
  102644:	c3                   	ret
  102645:	2e 8d b4 26 00 00 00 	lea    %cs:0x0(%esi,%eiz,1),%esi
  10264c:	00 
  10264d:	8d 76 00             	lea    0x0(%esi),%esi

00102650 <lapic_init>:

/*
 * Initialize local APIC.
 */
void lapic_init()
{
  102650:	55                   	push   %ebp
  102651:	57                   	push   %edi
  102652:	56                   	push   %esi
  102653:	53                   	push   %ebx
  102654:	e8 49 dd ff ff       	call   1003a2 <__x86.get_pc_thunk.bx>
  102659:	81 c3 9b e9 00 00    	add    $0xe99b,%ebx
  10265f:	83 ec 2c             	sub    $0x2c,%esp
    if (!lapic)
  102662:	8b 83 9c 88 02 00    	mov    0x2889c(%ebx),%eax
  102668:	8d 93 52 82 ff ff    	lea    -0x7dae(%ebx),%edx
  10266e:	89 54 24 10          	mov    %edx,0x10(%esp)
  102672:	85 c0                	test   %eax,%eax
  102674:	0f 84 9b 02 00 00    	je     102915 <lapic_init+0x2c5>
    lapic[index] = value;
  10267a:	c7 80 f0 00 00 00 27 	movl   $0x127,0xf0(%eax)
  102681:	01 00 00 
    lapic[LAPIC_ID];
  102684:	8b 50 20             	mov    0x20(%eax),%edx
    lapic[index] = value;
  102687:	c7 80 e0 03 00 00 0b 	movl   $0xb,0x3e0(%eax)
  10268e:	00 00 00 
    lapic[LAPIC_ID];
  102691:	8b 50 20             	mov    0x20(%eax),%edx
    lapic[index] = value;
  102694:	c7 80 20 03 00 00 20 	movl   $0x20020,0x320(%eax)
  10269b:	00 02 00 
    lapic[LAPIC_ID];
  10269e:	8b 50 20             	mov    0x20(%eax),%edx
    int i;
    for (i = 0; i < 5; i++) {
        lapic_ticks_per_ms = lapic_calibrate_timer(CAL_LATCH, CAL_MS, CAL_PIT_LOOPS);
        if (lapic_ticks_per_ms != ~(uint32_t) 0x0)
            break;
        KERN_DEBUG("[%d] Retry to calibrate internal timer of LAPIC.\n", i);
  1026a1:	8d 93 dc 8a ff ff    	lea    -0x7524(%ebx),%edx
    for (i = 0; i < 5; i++) {
  1026a7:	c7 44 24 14 00 00 00 	movl   $0x0,0x14(%esp)
  1026ae:	00 
        KERN_DEBUG("[%d] Retry to calibrate internal timer of LAPIC.\n", i);
  1026af:	89 54 24 1c          	mov    %edx,0x1c(%esp)
    lapic[index] = value;
  1026b3:	c7 80 80 03 00 00 ff 	movl   $0xffffffff,0x380(%eax)
  1026ba:	ff ff ff 
    outb(0x61, (inb(0x61) & ~0x02) | 0x01);
  1026bd:	83 ec 0c             	sub    $0xc,%esp
    lapic[LAPIC_ID];
  1026c0:	8b 40 20             	mov    0x20(%eax),%eax
    outb(0x61, (inb(0x61) & ~0x02) | 0x01);
  1026c3:	6a 61                	push   $0x61
  1026c5:	e8 86 28 00 00       	call   104f50 <inb>
  1026ca:	5a                   	pop    %edx
  1026cb:	59                   	pop    %ecx
  1026cc:	25 fc 00 00 00       	and    $0xfc,%eax
  1026d1:	83 c8 01             	or     $0x1,%eax
  1026d4:	50                   	push   %eax
  1026d5:	6a 61                	push   $0x61
  1026d7:	e8 a4 28 00 00       	call   104f80 <outb>
    outb(0x43, 0xb0);
  1026dc:	5e                   	pop    %esi
  1026dd:	5f                   	pop    %edi
  1026de:	68 b0 00 00 00       	push   $0xb0
  1026e3:	6a 43                	push   $0x43
    timermin = ~(uint32_t) 0x0;
  1026e5:	bf ff ff ff ff       	mov    $0xffffffff,%edi
    outb(0x43, 0xb0);
  1026ea:	e8 91 28 00 00       	call   104f80 <outb>
    outb(0x42, latch & 0xff);
  1026ef:	5d                   	pop    %ebp
  1026f0:	58                   	pop    %eax
  1026f1:	68 9b 00 00 00       	push   $0x9b
  1026f6:	6a 42                	push   $0x42
    timermax = 0;
  1026f8:	31 ed                	xor    %ebp,%ebp
    outb(0x42, latch & 0xff);
  1026fa:	e8 81 28 00 00       	call   104f80 <outb>
    outb(0x42, latch >> 8);
  1026ff:	58                   	pop    %eax
  102700:	5a                   	pop    %edx
  102701:	6a 2e                	push   $0x2e
  102703:	6a 42                	push   $0x42
  102705:	e8 76 28 00 00       	call   104f80 <outb>
    return lapic[index];
  10270a:	8b 83 9c 88 02 00    	mov    0x2889c(%ebx),%eax
    while ((inb(0x61) & 0x20) == 0) {
  102710:	83 c4 10             	add    $0x10,%esp
    pitcnt = 0;
  102713:	c7 44 24 0c 00 00 00 	movl   $0x0,0xc(%esp)
  10271a:	00 
    return lapic[index];
  10271b:	8b 80 90 03 00 00    	mov    0x390(%eax),%eax
    while ((inb(0x61) & 0x20) == 0) {
  102721:	89 44 24 18          	mov    %eax,0x18(%esp)
    timer = timer1 = timer2 = lapic_read(LAPIC_TCCR);
  102725:	89 c6                	mov    %eax,%esi
  102727:	89 e8                	mov    %ebp,%eax
  102729:	89 fd                	mov    %edi,%ebp
  10272b:	89 c7                	mov    %eax,%edi
    while ((inb(0x61) & 0x20) == 0) {
  10272d:	eb 20                	jmp    10274f <lapic_init+0xff>
  10272f:	90                   	nop
    return lapic[index];
  102730:	8b 83 9c 88 02 00    	mov    0x2889c(%ebx),%eax
  102736:	8b 80 90 03 00 00    	mov    0x390(%eax),%eax
        delta = timer - timer2;
  10273c:	29 c6                	sub    %eax,%esi
        if (delta < timermin)
  10273e:	39 f5                	cmp    %esi,%ebp
  102740:	0f 47 ee             	cmova  %esi,%ebp
        if (delta > timermax)
  102743:	39 f7                	cmp    %esi,%edi
  102745:	0f 42 fe             	cmovb  %esi,%edi
        pitcnt++;
  102748:	83 44 24 0c 01       	addl   $0x1,0xc(%esp)
        timer = timer2;
  10274d:	89 c6                	mov    %eax,%esi
    while ((inb(0x61) & 0x20) == 0) {
  10274f:	83 ec 0c             	sub    $0xc,%esp
  102752:	6a 61                	push   $0x61
  102754:	e8 f7 27 00 00       	call   104f50 <inb>
  102759:	83 c4 10             	add    $0x10,%esp
  10275c:	a8 20                	test   $0x20,%al
  10275e:	74 d0                	je     102730 <lapic_init+0xe0>
    if (pitcnt < loopmin || timermax > 10 * timermin)
  102760:	81 7c 24 0c e7 03 00 	cmpl   $0x3e7,0xc(%esp)
  102767:	00 
  102768:	89 fa                	mov    %edi,%edx
  10276a:	8b 44 24 18          	mov    0x18(%esp),%eax
  10276e:	89 ef                	mov    %ebp,%edi
  102770:	0f 8e 3a 01 00 00    	jle    1028b0 <lapic_init+0x260>
  102776:	8d 0c bf             	lea    (%edi,%edi,4),%ecx
  102779:	01 c9                	add    %ecx,%ecx
  10277b:	39 d1                	cmp    %edx,%ecx
  10277d:	0f 82 2d 01 00 00    	jb     1028b0 <lapic_init+0x260>
    delta = timer1 - timer2;
  102783:	29 f0                	sub    %esi,%eax
    return delta / ms;
  102785:	ba cd cc cc cc       	mov    $0xcccccccd,%edx
    if (lapic_ticks_per_ms == ~(uint32_t) 0x0) {
        KERN_WARN("Failed to calibrate internal timer of LAPIC.\n");
        KERN_DEBUG("Assume LAPIC timer freq = 0.5 GHz.\n");
        lapic_ticks_per_ms = 500000;
    } else
        KERN_DEBUG("LAPIC timer freq = %llu Hz.\n",
  10278a:	83 ec 0c             	sub    $0xc,%esp
    return delta / ms;
  10278d:	f7 e2                	mul    %edx
        KERN_DEBUG("LAPIC timer freq = %llu Hz.\n",
  10278f:	b8 e8 03 00 00       	mov    $0x3e8,%eax
    return delta / ms;
  102794:	c1 ea 03             	shr    $0x3,%edx
  102797:	89 d6                	mov    %edx,%esi
        KERN_DEBUG("LAPIC timer freq = %llu Hz.\n",
  102799:	f7 e2                	mul    %edx
  10279b:	52                   	push   %edx
  10279c:	50                   	push   %eax
  10279d:	8d 83 63 82 ff ff    	lea    -0x7d9d(%ebx),%eax
  1027a3:	50                   	push   %eax
  1027a4:	6a 7d                	push   $0x7d
  1027a6:	ff 74 24 2c          	push   0x2c(%esp)
  1027aa:	e8 51 19 00 00       	call   104100 <debug_normal>
                   (uint64_t) lapic_ticks_per_ms * 1000);

    uint32_t ticr = lapic_ticks_per_ms * 1000 / LAPIC_TIMER_INTR_FREQ;
  1027af:	69 d6 e8 03 00 00    	imul   $0x3e8,%esi,%edx
  1027b5:	b8 d3 4d 62 10       	mov    $0x10624dd3,%eax
  1027ba:	83 c4 20             	add    $0x20,%esp
  1027bd:	f7 e2                	mul    %edx
  1027bf:	c1 ea 06             	shr    $0x6,%edx
  1027c2:	89 d6                	mov    %edx,%esi
    KERN_DEBUG("Set LAPIC TICR = %x.\n", ticr);
  1027c4:	8d 83 80 82 ff ff    	lea    -0x7d80(%ebx),%eax
  1027ca:	56                   	push   %esi
  1027cb:	50                   	push   %eax
  1027cc:	68 81 00 00 00       	push   $0x81
  1027d1:	ff 74 24 1c          	push   0x1c(%esp)
  1027d5:	e8 26 19 00 00       	call   104100 <debug_normal>
    lapic[index] = value;
  1027da:	8b 83 9c 88 02 00    	mov    0x2889c(%ebx),%eax
    lapic_write(LAPIC_LINT0, LAPIC_LINT_MASKED);
    lapic_write(LAPIC_LINT1, LAPIC_LINT_MASKED);

    // Disable performance counter overflow interrupts
    // on machines that provide that interrupt entry.
    if (((lapic_read(LAPIC_VER) >> 16) & 0xFF) >= 4)
  1027e0:	83 c4 10             	add    $0x10,%esp
    lapic[index] = value;
  1027e3:	89 b0 80 03 00 00    	mov    %esi,0x380(%eax)
    lapic[LAPIC_ID];
  1027e9:	8b 50 20             	mov    0x20(%eax),%edx
    lapic[index] = value;
  1027ec:	c7 80 50 03 00 00 00 	movl   $0x10000,0x350(%eax)
  1027f3:	00 01 00 
    lapic[LAPIC_ID];
  1027f6:	8b 50 20             	mov    0x20(%eax),%edx
    lapic[index] = value;
  1027f9:	c7 80 60 03 00 00 00 	movl   $0x10000,0x360(%eax)
  102800:	00 01 00 
    lapic[LAPIC_ID];
  102803:	8b 50 20             	mov    0x20(%eax),%edx
    return lapic[index];
  102806:	8b 50 30             	mov    0x30(%eax),%edx
    if (((lapic_read(LAPIC_VER) >> 16) & 0xFF) >= 4)
  102809:	81 e2 00 00 fc 00    	and    $0xfc0000,%edx
  10280f:	74 0d                	je     10281e <lapic_init+0x1ce>
    lapic[index] = value;
  102811:	c7 80 40 03 00 00 00 	movl   $0x10000,0x340(%eax)
  102818:	00 01 00 
    lapic[LAPIC_ID];
  10281b:	8b 50 20             	mov    0x20(%eax),%edx
    lapic[index] = value;
  10281e:	c7 80 e0 00 00 00 00 	movl   $0xf0000000,0xe0(%eax)
  102825:	00 00 f0 
    lapic[LAPIC_ID];
  102828:	8b 50 20             	mov    0x20(%eax),%edx
    lapic[index] = value;
  10282b:	c7 80 d0 00 00 00 00 	movl   $0x0,0xd0(%eax)
  102832:	00 00 00 
    lapic[LAPIC_ID];
  102835:	8b 50 20             	mov    0x20(%eax),%edx
    lapic[index] = value;
  102838:	c7 80 70 03 00 00 32 	movl   $0x32,0x370(%eax)
  10283f:	00 00 00 
    lapic[LAPIC_ID];
  102842:	8b 50 20             	mov    0x20(%eax),%edx
    lapic[index] = value;
  102845:	c7 80 80 02 00 00 00 	movl   $0x0,0x280(%eax)
  10284c:	00 00 00 
    lapic[LAPIC_ID];
  10284f:	8b 50 20             	mov    0x20(%eax),%edx
    lapic[index] = value;
  102852:	c7 80 80 02 00 00 00 	movl   $0x0,0x280(%eax)
  102859:	00 00 00 
    lapic[LAPIC_ID];
  10285c:	8b 50 20             	mov    0x20(%eax),%edx
    lapic[index] = value;
  10285f:	c7 80 b0 00 00 00 00 	movl   $0x0,0xb0(%eax)
  102866:	00 00 00 
    lapic[LAPIC_ID];
  102869:	8b 50 20             	mov    0x20(%eax),%edx
    lapic[index] = value;
  10286c:	c7 80 10 03 00 00 00 	movl   $0x0,0x310(%eax)
  102873:	00 00 00 
    lapic[LAPIC_ID];
  102876:	8b 50 20             	mov    0x20(%eax),%edx
    lapic[index] = value;
  102879:	c7 80 00 03 00 00 00 	movl   $0x88500,0x300(%eax)
  102880:	85 08 00 
    lapic[LAPIC_ID];
  102883:	8b 50 20             	mov    0x20(%eax),%edx

    // Send an Init Level De-Assert to synchronise arbitration ID's.
    lapic_write(LAPIC_ICRHI, 0);
    lapic_write(LAPIC_ICRLO,
                LAPIC_ICRLO_BCAST | LAPIC_ICRLO_INIT | LAPIC_ICRLO_LEVEL);
    while (lapic_read(LAPIC_ICRLO) & LAPIC_ICRLO_DELIVS);
  102886:	2e 8d b4 26 00 00 00 	lea    %cs:0x0(%esi,%eiz,1),%esi
  10288d:	00 
  10288e:	66 90                	xchg   %ax,%ax
    return lapic[index];
  102890:	8b 90 00 03 00 00    	mov    0x300(%eax),%edx
    while (lapic_read(LAPIC_ICRLO) & LAPIC_ICRLO_DELIVS);
  102896:	80 e6 10             	and    $0x10,%dh
  102899:	75 f5                	jne    102890 <lapic_init+0x240>
    lapic[index] = value;
  10289b:	c7 80 80 00 00 00 00 	movl   $0x0,0x80(%eax)
  1028a2:	00 00 00 
    lapic[LAPIC_ID];
  1028a5:	8b 40 20             	mov    0x20(%eax),%eax

    // Enable interrupts on the APIC (but not on the processor).
    lapic_write(LAPIC_TPR, 0);
}
  1028a8:	83 c4 2c             	add    $0x2c,%esp
  1028ab:	5b                   	pop    %ebx
  1028ac:	5e                   	pop    %esi
  1028ad:	5f                   	pop    %edi
  1028ae:	5d                   	pop    %ebp
  1028af:	c3                   	ret
        KERN_DEBUG("[%d] Retry to calibrate internal timer of LAPIC.\n", i);
  1028b0:	8b 7c 24 14          	mov    0x14(%esp),%edi
  1028b4:	57                   	push   %edi
  1028b5:	ff 74 24 20          	push   0x20(%esp)
  1028b9:	6a 75                	push   $0x75
  1028bb:	ff 74 24 1c          	push   0x1c(%esp)
  1028bf:	e8 3c 18 00 00       	call   104100 <debug_normal>
    for (i = 0; i < 5; i++) {
  1028c4:	89 f8                	mov    %edi,%eax
  1028c6:	83 c0 01             	add    $0x1,%eax
  1028c9:	89 44 24 24          	mov    %eax,0x24(%esp)
  1028cd:	83 c4 10             	add    $0x10,%esp
  1028d0:	83 f8 05             	cmp    $0x5,%eax
  1028d3:	74 0b                	je     1028e0 <lapic_init+0x290>
    lapic[index] = value;
  1028d5:	8b 83 9c 88 02 00    	mov    0x2889c(%ebx),%eax
  1028db:	e9 d3 fd ff ff       	jmp    1026b3 <lapic_init+0x63>
        KERN_WARN("Failed to calibrate internal timer of LAPIC.\n");
  1028e0:	83 ec 04             	sub    $0x4,%esp
  1028e3:	8d 83 10 8b ff ff    	lea    -0x74f0(%ebx),%eax
  1028e9:	be 20 a1 07 00       	mov    $0x7a120,%esi
  1028ee:	50                   	push   %eax
  1028ef:	6a 79                	push   $0x79
  1028f1:	8b 7c 24 1c          	mov    0x1c(%esp),%edi
  1028f5:	57                   	push   %edi
  1028f6:	e8 75 19 00 00       	call   104270 <debug_warn>
        KERN_DEBUG("Assume LAPIC timer freq = 0.5 GHz.\n");
  1028fb:	83 c4 0c             	add    $0xc,%esp
  1028fe:	8d 83 40 8b ff ff    	lea    -0x74c0(%ebx),%eax
  102904:	50                   	push   %eax
  102905:	6a 7a                	push   $0x7a
  102907:	57                   	push   %edi
  102908:	e8 f3 17 00 00       	call   104100 <debug_normal>
        lapic_ticks_per_ms = 500000;
  10290d:	83 c4 10             	add    $0x10,%esp
  102910:	e9 af fe ff ff       	jmp    1027c4 <lapic_init+0x174>
        KERN_PANIC("NO LAPIC");
  102915:	83 ec 04             	sub    $0x4,%esp
  102918:	8d 83 49 82 ff ff    	lea    -0x7db7(%ebx),%eax
  10291e:	50                   	push   %eax
  10291f:	6a 62                	push   $0x62
  102921:	ff 74 24 1c          	push   0x1c(%esp)
  102925:	e8 36 18 00 00       	call   104160 <debug_panic>
    lapic[index] = value;
  10292a:	8b 83 9c 88 02 00    	mov    0x2889c(%ebx),%eax
  102930:	83 c4 10             	add    $0x10,%esp
  102933:	e9 42 fd ff ff       	jmp    10267a <lapic_init+0x2a>
  102938:	2e 8d b4 26 00 00 00 	lea    %cs:0x0(%esi,%eiz,1),%esi
  10293f:	00 

00102940 <lapic_eoi>:
/*
 * Acknowledge the end of interrupts.
 */
void lapic_eoi(void)
{
    if (lapic)
  102940:	e8 55 da ff ff       	call   10039a <__x86.get_pc_thunk.ax>
  102945:	05 af e6 00 00       	add    $0xe6af,%eax
  10294a:	8b 80 9c 88 02 00    	mov    0x2889c(%eax),%eax
  102950:	85 c0                	test   %eax,%eax
  102952:	74 0d                	je     102961 <lapic_eoi+0x21>
    lapic[index] = value;
  102954:	c7 80 b0 00 00 00 00 	movl   $0x0,0xb0(%eax)
  10295b:	00 00 00 
    lapic[LAPIC_ID];
  10295e:	8b 40 20             	mov    0x20(%eax),%eax
        lapic_write(LAPIC_EOI, 0);
}
  102961:	c3                   	ret
  102962:	2e 8d b4 26 00 00 00 	lea    %cs:0x0(%esi,%eiz,1),%esi
  102969:	00 
  10296a:	8d b6 00 00 00 00    	lea    0x0(%esi),%esi

00102970 <lapic_startcpu>:
/*
 * Start additional processor running bootstrap code at addr.
 * See Appendix B of MultiProcessor Specification.
 */
void lapic_startcpu(lapicid_t apicid, uintptr_t addr)
{
  102970:	57                   	push   %edi
  102971:	56                   	push   %esi
  102972:	53                   	push   %ebx
  102973:	8b 74 24 14          	mov    0x14(%esp),%esi
  102977:	e8 26 da ff ff       	call   1003a2 <__x86.get_pc_thunk.bx>
  10297c:	81 c3 78 e6 00 00    	add    $0xe678,%ebx
  102982:	8b 7c 24 10          	mov    0x10(%esp),%edi
    uint16_t *wrv;

    // "The BSP must initialize CMOS shutdown code to 0AH
    // and the warm reset vector (DWORD based at 40:67) to point at
    // the AP startup code prior to the [universal startup algorithm]."
    outb(IO_RTC, 0xF);                      // offset 0xF is shutdown code
  102986:	83 ec 08             	sub    $0x8,%esp
    lapic[index] = value;
  102989:	c1 e7 18             	shl    $0x18,%edi
    outb(IO_RTC, 0xF);                      // offset 0xF is shutdown code
  10298c:	6a 0f                	push   $0xf
  10298e:	6a 70                	push   $0x70
  102990:	e8 eb 25 00 00       	call   104f80 <outb>
    outb(IO_RTC + 1, 0x0A);
  102995:	58                   	pop    %eax
  102996:	5a                   	pop    %edx
  102997:	6a 0a                	push   $0xa
  102999:	6a 71                	push   $0x71
  10299b:	e8 e0 25 00 00       	call   104f80 <outb>
    wrv = (uint16_t *) (0x40 << 4 | 0x67);  // Warm reset vector
    wrv[0] = 0;
    wrv[1] = addr >> 4;
  1029a0:	89 f0                	mov    %esi,%eax
    // when it is in the halted state due to an INIT. So the second
    // should be ignored, but it is part of the official Intel algorithm.
    // Bochs complains about the second one. Too bad for Bochs.
    for (i = 0; i < 2; i++) {
        lapic_write(LAPIC_ICRHI, apicid << 24);
        lapic_write(LAPIC_ICRLO, LAPIC_ICRLO_STARTUP | (addr >> 12));
  1029a2:	c1 ee 0c             	shr    $0xc,%esi
        microdelay(200);
    }
}
  1029a5:	83 c4 10             	add    $0x10,%esp
    wrv[1] = addr >> 4;
  1029a8:	c1 e8 04             	shr    $0x4,%eax
        lapic_write(LAPIC_ICRLO, LAPIC_ICRLO_STARTUP | (addr >> 12));
  1029ab:	81 ce 00 06 00 00    	or     $0x600,%esi
    wrv[0] = 0;
  1029b1:	31 c9                	xor    %ecx,%ecx
    wrv[1] = addr >> 4;
  1029b3:	66 a3 69 04 00 00    	mov    %ax,0x469
    lapic[index] = value;
  1029b9:	8b 83 9c 88 02 00    	mov    0x2889c(%ebx),%eax
    wrv[0] = 0;
  1029bf:	66 89 0d 67 04 00 00 	mov    %cx,0x467
    lapic[index] = value;
  1029c6:	89 b8 10 03 00 00    	mov    %edi,0x310(%eax)
    lapic[LAPIC_ID];
  1029cc:	8b 48 20             	mov    0x20(%eax),%ecx
    lapic[index] = value;
  1029cf:	c7 80 00 03 00 00 00 	movl   $0xc500,0x300(%eax)
  1029d6:	c5 00 00 
    lapic[LAPIC_ID];
  1029d9:	8b 48 20             	mov    0x20(%eax),%ecx
    lapic[index] = value;
  1029dc:	c7 80 00 03 00 00 00 	movl   $0x8500,0x300(%eax)
  1029e3:	85 00 00 
    lapic[LAPIC_ID];
  1029e6:	8b 48 20             	mov    0x20(%eax),%ecx
    lapic[index] = value;
  1029e9:	89 b8 10 03 00 00    	mov    %edi,0x310(%eax)
    lapic[LAPIC_ID];
  1029ef:	8b 48 20             	mov    0x20(%eax),%ecx
    lapic[index] = value;
  1029f2:	89 b0 00 03 00 00    	mov    %esi,0x300(%eax)
    lapic[LAPIC_ID];
  1029f8:	8b 48 20             	mov    0x20(%eax),%ecx
    lapic[index] = value;
  1029fb:	89 b8 10 03 00 00    	mov    %edi,0x310(%eax)
    lapic[LAPIC_ID];
  102a01:	8b 50 20             	mov    0x20(%eax),%edx
    lapic[index] = value;
  102a04:	89 b0 00 03 00 00    	mov    %esi,0x300(%eax)
}
  102a0a:	5b                   	pop    %ebx
    lapic[LAPIC_ID];
  102a0b:	8b 40 20             	mov    0x20(%eax),%eax
}
  102a0e:	5e                   	pop    %esi
  102a0f:	5f                   	pop    %edi
  102a10:	c3                   	ret
  102a11:	2e 8d b4 26 00 00 00 	lea    %cs:0x0(%esi,%eiz,1),%esi
  102a18:	00 
  102a19:	8d b4 26 00 00 00 00 	lea    0x0(%esi,%eiz,1),%esi

00102a20 <lapic_read_debug>:
    return lapic[index];
  102a20:	e8 75 d9 ff ff       	call   10039a <__x86.get_pc_thunk.ax>
  102a25:	05 cf e5 00 00       	add    $0xe5cf,%eax
  102a2a:	8b 54 24 04          	mov    0x4(%esp),%edx
  102a2e:	8b 80 9c 88 02 00    	mov    0x2889c(%eax),%eax
  102a34:	8d 04 90             	lea    (%eax,%edx,4),%eax
  102a37:	8b 00                	mov    (%eax),%eax

uint32_t lapic_read_debug(int index)
{
    return lapic_read(index);
}
  102a39:	c3                   	ret
  102a3a:	8d b6 00 00 00 00    	lea    0x0(%esi),%esi

00102a40 <lapic_send_ipi>:
/*
 * Send an IPI.
 */
void lapic_send_ipi(lapicid_t apicid, uint8_t vector,
                    uint32_t deliver_mode, uint32_t shorthand_mode)
{
  102a40:	55                   	push   %ebp
  102a41:	57                   	push   %edi
  102a42:	56                   	push   %esi
  102a43:	53                   	push   %ebx
  102a44:	e8 59 d9 ff ff       	call   1003a2 <__x86.get_pc_thunk.bx>
  102a49:	81 c3 ab e5 00 00    	add    $0xe5ab,%ebx
  102a4f:	83 ec 0c             	sub    $0xc,%esp
    KERN_ASSERT(deliver_mode != LAPIC_ICRLO_INIT &&
  102a52:	8b 44 24 28          	mov    0x28(%esp),%eax
{
  102a56:	8b 6c 24 20          	mov    0x20(%esp),%ebp
  102a5a:	8b 74 24 24          	mov    0x24(%esp),%esi
  102a5e:	8b 7c 24 2c          	mov    0x2c(%esp),%edi
    KERN_ASSERT(deliver_mode != LAPIC_ICRLO_INIT &&
  102a62:	2d 00 05 00 00       	sub    $0x500,%eax
  102a67:	a9 ff fe ff ff       	test   $0xfffffeff,%eax
  102a6c:	74 5a                	je     102ac8 <lapic_send_ipi+0x88>
                deliver_mode != LAPIC_ICRLO_STARTUP);
    KERN_ASSERT(vector >= T_IPI0);
  102a6e:	89 f0                	mov    %esi,%eax
  102a70:	3c 3e                	cmp    $0x3e,%al
  102a72:	77 11                	ja     102a85 <lapic_send_ipi+0x45>
  102a74:	eb 7a                	jmp    102af0 <lapic_send_ipi+0xb0>
  102a76:	2e 8d b4 26 00 00 00 	lea    %cs:0x0(%esi,%eiz,1),%esi
  102a7d:	00 
  102a7e:	66 90                	xchg   %ax,%ax

    while (lapic_read(LAPIC_ICRLO) & LAPIC_ICRLO_DELIVS)
        pause();
  102a80:	e8 2b 23 00 00       	call   104db0 <pause>
    return lapic[index];
  102a85:	8b 83 9c 88 02 00    	mov    0x2889c(%ebx),%eax
  102a8b:	8b 90 00 03 00 00    	mov    0x300(%eax),%edx
    while (lapic_read(LAPIC_ICRLO) & LAPIC_ICRLO_DELIVS)
  102a91:	80 e6 10             	and    $0x10,%dh
  102a94:	75 ea                	jne    102a80 <lapic_send_ipi+0x40>

    if (shorthand_mode == LAPIC_ICRLO_NOBCAST)
  102a96:	85 ff                	test   %edi,%edi
  102a98:	75 0c                	jne    102aa6 <lapic_send_ipi+0x66>
    lapic[index] = value;
  102a9a:	c1 e5 18             	shl    $0x18,%ebp
  102a9d:	89 a8 10 03 00 00    	mov    %ebp,0x310(%eax)
    lapic[LAPIC_ID];
  102aa3:	8b 50 20             	mov    0x20(%eax),%edx
        lapic_write(LAPIC_ICRHI,
                    (apicid << LAPIC_ICRHI_DEST_SHIFT) & LAPIC_ICRHI_DEST_MASK);

    lapic_write(LAPIC_ICRLO,
                shorthand_mode |  /* LAPIC_ICRLO_LEVEL | */
                deliver_mode | (vector & LAPIC_ICRLO_VECTOR));
  102aa6:	89 f1                	mov    %esi,%ecx
  102aa8:	0f b6 f1             	movzbl %cl,%esi
  102aab:	09 fe                	or     %edi,%esi
  102aad:	0b 74 24 28          	or     0x28(%esp),%esi
    lapic[index] = value;
  102ab1:	89 b0 00 03 00 00    	mov    %esi,0x300(%eax)
    lapic[LAPIC_ID];
  102ab7:	8b 40 20             	mov    0x20(%eax),%eax
}
  102aba:	83 c4 0c             	add    $0xc,%esp
  102abd:	5b                   	pop    %ebx
  102abe:	5e                   	pop    %esi
  102abf:	5f                   	pop    %edi
  102ac0:	5d                   	pop    %ebp
  102ac1:	c3                   	ret
  102ac2:	8d b6 00 00 00 00    	lea    0x0(%esi),%esi
    KERN_ASSERT(deliver_mode != LAPIC_ICRLO_INIT &&
  102ac8:	8d 83 64 8b ff ff    	lea    -0x749c(%ebx),%eax
  102ace:	50                   	push   %eax
  102acf:	8d 83 b5 80 ff ff    	lea    -0x7f4b(%ebx),%eax
  102ad5:	50                   	push   %eax
  102ad6:	8d 83 52 82 ff ff    	lea    -0x7dae(%ebx),%eax
  102adc:	68 e4 00 00 00       	push   $0xe4
  102ae1:	50                   	push   %eax
  102ae2:	e8 79 16 00 00       	call   104160 <debug_panic>
    KERN_ASSERT(vector >= T_IPI0);
  102ae7:	89 f0                	mov    %esi,%eax
    KERN_ASSERT(deliver_mode != LAPIC_ICRLO_INIT &&
  102ae9:	83 c4 10             	add    $0x10,%esp
    KERN_ASSERT(vector >= T_IPI0);
  102aec:	3c 3e                	cmp    $0x3e,%al
  102aee:	77 95                	ja     102a85 <lapic_send_ipi+0x45>
  102af0:	8d 83 96 82 ff ff    	lea    -0x7d6a(%ebx),%eax
  102af6:	50                   	push   %eax
  102af7:	8d 83 b5 80 ff ff    	lea    -0x7f4b(%ebx),%eax
  102afd:	50                   	push   %eax
  102afe:	8d 83 52 82 ff ff    	lea    -0x7dae(%ebx),%eax
  102b04:	68 e6 00 00 00       	push   $0xe6
  102b09:	50                   	push   %eax
  102b0a:	e8 51 16 00 00       	call   104160 <debug_panic>
  102b0f:	83 c4 10             	add    $0x10,%esp
    return lapic[index];
  102b12:	e9 6e ff ff ff       	jmp    102a85 <lapic_send_ipi+0x45>
  102b17:	66 90                	xchg   %ax,%ax
  102b19:	66 90                	xchg   %ax,%ax
  102b1b:	66 90                	xchg   %ax,%ax
  102b1d:	66 90                	xchg   %ax,%ax
  102b1f:	90                   	nop

00102b20 <ioapic_register>:
    base->reg = reg;
    base->data = data;
}

void ioapic_register(uintptr_t addr, lapicid_t id, int g)
{
  102b20:	53                   	push   %ebx
  102b21:	e8 7c d8 ff ff       	call   1003a2 <__x86.get_pc_thunk.bx>
  102b26:	81 c3 ce e4 00 00    	add    $0xe4ce,%ebx
  102b2c:	83 ec 08             	sub    $0x8,%esp
  102b2f:	8b 54 24 14          	mov    0x14(%esp),%edx
    if (ioapic_num >= MAX_IOAPIC) {
  102b33:	8b 83 ac 88 02 00    	mov    0x288ac(%ebx),%eax
  102b39:	83 f8 0f             	cmp    $0xf,%eax
  102b3c:	7f 4a                	jg     102b88 <ioapic_register+0x68>
        KERN_WARN("CertiKOS cannot manipulate more than %d IOAPICs.\n", MAX_IOAPIC);
        return;
    }

    ioapics[ioapic_num] = (ioapic_t *) addr;
  102b3e:	8b 83 ac 88 02 00    	mov    0x288ac(%ebx),%eax
  102b44:	8b 4c 24 10          	mov    0x10(%esp),%ecx
  102b48:	89 8c 83 2c 89 02 00 	mov    %ecx,0x2892c(%ebx,%eax,4)
    ioapicid[ioapic_num] = id;
  102b4f:	8b 83 ac 88 02 00    	mov    0x288ac(%ebx),%eax
    gsi[ioapic_num] = g;
  102b55:	8b 4c 24 18          	mov    0x18(%esp),%ecx
    ioapicid[ioapic_num] = id;
  102b59:	88 94 03 0c 89 02 00 	mov    %dl,0x2890c(%ebx,%eax,1)
    gsi[ioapic_num] = g;
  102b60:	8b 93 ac 88 02 00    	mov    0x288ac(%ebx),%edx
  102b66:	8d 83 cc 88 02 00    	lea    0x288cc(%ebx),%eax
  102b6c:	89 0c 90             	mov    %ecx,(%eax,%edx,4)

    ioapic_num++;
  102b6f:	8b 83 ac 88 02 00    	mov    0x288ac(%ebx),%eax
  102b75:	83 c0 01             	add    $0x1,%eax
  102b78:	89 83 ac 88 02 00    	mov    %eax,0x288ac(%ebx)
}
  102b7e:	83 c4 08             	add    $0x8,%esp
  102b81:	5b                   	pop    %ebx
  102b82:	c3                   	ret
  102b83:	2e 8d 74 26 00       	lea    %cs:0x0(%esi,%eiz,1),%esi
        KERN_WARN("CertiKOS cannot manipulate more than %d IOAPICs.\n", MAX_IOAPIC);
  102b88:	8d 83 ac 8b ff ff    	lea    -0x7454(%ebx),%eax
  102b8e:	6a 10                	push   $0x10
  102b90:	50                   	push   %eax
  102b91:	8d 83 a7 82 ff ff    	lea    -0x7d59(%ebx),%eax
  102b97:	6a 1f                	push   $0x1f
  102b99:	50                   	push   %eax
  102b9a:	e8 d1 16 00 00       	call   104270 <debug_warn>
        return;
  102b9f:	83 c4 10             	add    $0x10,%esp
}
  102ba2:	83 c4 08             	add    $0x8,%esp
  102ba5:	5b                   	pop    %ebx
  102ba6:	c3                   	ret
  102ba7:	2e 8d b4 26 00 00 00 	lea    %cs:0x0(%esi,%eiz,1),%esi
  102bae:	00 
  102baf:	90                   	nop

00102bb0 <ioapic_init>:

void ioapic_init(void)
{
    int i;
    for (i = 0; i < ioapic_num; i++) {
  102bb0:	e8 ae 02 00 00       	call   102e63 <__x86.get_pc_thunk.cx>
  102bb5:	81 c1 3f e4 00 00    	add    $0xe43f,%ecx
{
  102bbb:	55                   	push   %ebp
  102bbc:	57                   	push   %edi
  102bbd:	56                   	push   %esi
  102bbe:	53                   	push   %ebx
  102bbf:	83 ec 1c             	sub    $0x1c,%esp
    for (i = 0; i < ioapic_num; i++) {
  102bc2:	8b 81 ac 88 02 00    	mov    0x288ac(%ecx),%eax
  102bc8:	89 0c 24             	mov    %ecx,(%esp)
  102bcb:	85 c0                	test   %eax,%eax
  102bcd:	0f 8e ec 00 00 00    	jle    102cbf <ioapic_init+0x10f>
  102bd3:	89 c8                	mov    %ecx,%eax
  102bd5:	31 ff                	xor    %edi,%edi
  102bd7:	8d 89 0c 89 02 00    	lea    0x2890c(%ecx),%ecx
        volatile ioapic_t *ioapic = ioapics[i];
        KERN_ASSERT(ioapic != NULL);
  102bdd:	8d 98 b9 82 ff ff    	lea    -0x7d47(%eax),%ebx
  102be3:	8d 80 b5 80 ff ff    	lea    -0x7f4b(%eax),%eax
  102be9:	89 5c 24 08          	mov    %ebx,0x8(%esp)
  102bed:	89 44 24 0c          	mov    %eax,0xc(%esp)
  102bf1:	8d b4 26 00 00 00 00 	lea    0x0(%esi,%eiz,1),%esi
        volatile ioapic_t *ioapic = ioapics[i];
  102bf8:	8b 04 24             	mov    (%esp),%eax
  102bfb:	8b b4 b8 2c 89 02 00 	mov    0x2892c(%eax,%edi,4),%esi
        KERN_ASSERT(ioapic != NULL);
  102c02:	85 f6                	test   %esi,%esi
  102c04:	0f 84 c6 00 00 00    	je     102cd0 <ioapic_init+0x120>
    base->reg = reg;
  102c0a:	c7 06 00 00 00 00    	movl   $0x0,(%esi)
    return base->data;
  102c10:	8b 46 10             	mov    0x10(%esi),%eax

        lapicid_t id = ioapic_read(ioapic, IOAPIC_ID) >> 24;
        if (id == 0) {
  102c13:	c1 e8 18             	shr    $0x18,%eax
  102c16:	75 14                	jne    102c2c <ioapic_init+0x7c>
            // I/O APIC ID not initialized yet - have to do it ourselves.
            ioapic_write(ioapic, IOAPIC_ID, ioapicid[i] << 24);
  102c18:	0f b6 04 39          	movzbl (%ecx,%edi,1),%eax
    base->reg = reg;
  102c1c:	c7 06 00 00 00 00    	movl   $0x0,(%esi)
            ioapic_write(ioapic, IOAPIC_ID, ioapicid[i] << 24);
  102c22:	c1 e0 18             	shl    $0x18,%eax
    base->data = data;
  102c25:	89 46 10             	mov    %eax,0x10(%esi)
            id = ioapicid[i];
  102c28:	0f b6 04 39          	movzbl (%ecx,%edi,1),%eax
        }

        if (id != ioapicid[i])
  102c2c:	0f b6 14 39          	movzbl (%ecx,%edi,1),%edx
  102c30:	38 c2                	cmp    %al,%dl
  102c32:	74 30                	je     102c64 <ioapic_init+0xb4>
            KERN_WARN("ioapic_init: id %d != ioapicid %d\n", id, ioapicid[i]);
  102c34:	0f b6 14 39          	movzbl (%ecx,%edi,1),%edx
  102c38:	89 4c 24 04          	mov    %ecx,0x4(%esp)
  102c3c:	0f b6 c0             	movzbl %al,%eax
  102c3f:	83 ec 0c             	sub    $0xc,%esp
  102c42:	52                   	push   %edx
  102c43:	50                   	push   %eax
  102c44:	8b 5c 24 14          	mov    0x14(%esp),%ebx
  102c48:	8d 83 e0 8b ff ff    	lea    -0x7420(%ebx),%eax
  102c4e:	50                   	push   %eax
  102c4f:	8d 83 a7 82 ff ff    	lea    -0x7d59(%ebx),%eax
  102c55:	6a 39                	push   $0x39
  102c57:	50                   	push   %eax
  102c58:	e8 13 16 00 00       	call   104270 <debug_warn>
  102c5d:	8b 4c 24 24          	mov    0x24(%esp),%ecx
  102c61:	83 c4 20             	add    $0x20,%esp
    base->reg = reg;
  102c64:	c7 06 01 00 00 00    	movl   $0x1,(%esi)
    return base->data;
  102c6a:	8b 6e 10             	mov    0x10(%esi),%ebp
        int maxintr = (ioapic_read(ioapic, IOAPIC_VER) >> 16) & 0xFF;

        // Mark all interrupts edge-triggered, active high, disabled,
        // and not routed to any CPUs.
        int j;
        for (j = 0; j <= maxintr; j++) {
  102c6d:	89 7c 24 04          	mov    %edi,0x4(%esp)
        int maxintr = (ioapic_read(ioapic, IOAPIC_VER) >> 16) & 0xFF;
  102c71:	c1 ed 10             	shr    $0x10,%ebp
  102c74:	89 e8                	mov    %ebp,%eax
  102c76:	0f b6 e8             	movzbl %al,%ebp
        for (j = 0; j <= maxintr; j++) {
  102c79:	31 c0                	xor    %eax,%eax
  102c7b:	2e 8d 74 26 00       	lea    %cs:0x0(%esi,%eiz,1),%esi
            ioapic_write(ioapic, IOAPIC_TABLE + 2 * j,
  102c80:	8d 14 00             	lea    (%eax,%eax,1),%edx
  102c83:	8d 58 20             	lea    0x20(%eax),%ebx
        for (j = 0; j <= maxintr; j++) {
  102c86:	83 c0 01             	add    $0x1,%eax
  102c89:	8d 7a 10             	lea    0x10(%edx),%edi
  102c8c:	81 cb 00 00 01 00    	or     $0x10000,%ebx
    base->reg = reg;
  102c92:	83 c2 11             	add    $0x11,%edx
  102c95:	89 3e                	mov    %edi,(%esi)
    base->data = data;
  102c97:	89 5e 10             	mov    %ebx,0x10(%esi)
    base->reg = reg;
  102c9a:	89 16                	mov    %edx,(%esi)
    base->data = data;
  102c9c:	c7 46 10 00 00 00 00 	movl   $0x0,0x10(%esi)
        for (j = 0; j <= maxintr; j++) {
  102ca3:	39 c5                	cmp    %eax,%ebp
  102ca5:	7d d9                	jge    102c80 <ioapic_init+0xd0>
    for (i = 0; i < ioapic_num; i++) {
  102ca7:	8b 04 24             	mov    (%esp),%eax
  102caa:	8b 7c 24 04          	mov    0x4(%esp),%edi
  102cae:	8b 80 ac 88 02 00    	mov    0x288ac(%eax),%eax
  102cb4:	83 c7 01             	add    $0x1,%edi
  102cb7:	39 f8                	cmp    %edi,%eax
  102cb9:	0f 8f 39 ff ff ff    	jg     102bf8 <ioapic_init+0x48>
                         IOAPIC_INT_DISABLED | (T_IRQ0 + j));
            ioapic_write(ioapic, IOAPIC_TABLE + 2 * j + 1, 0);
        }
    }
}
  102cbf:	83 c4 1c             	add    $0x1c,%esp
  102cc2:	5b                   	pop    %ebx
  102cc3:	5e                   	pop    %esi
  102cc4:	5f                   	pop    %edi
  102cc5:	5d                   	pop    %ebp
  102cc6:	c3                   	ret
  102cc7:	2e 8d b4 26 00 00 00 	lea    %cs:0x0(%esi,%eiz,1),%esi
  102cce:	00 
  102ccf:	90                   	nop
  102cd0:	89 4c 24 04          	mov    %ecx,0x4(%esp)
        KERN_ASSERT(ioapic != NULL);
  102cd4:	ff 74 24 08          	push   0x8(%esp)
  102cd8:	ff 74 24 10          	push   0x10(%esp)
  102cdc:	6a 2f                	push   $0x2f
  102cde:	8b 5c 24 0c          	mov    0xc(%esp),%ebx
  102ce2:	8d 83 a7 82 ff ff    	lea    -0x7d59(%ebx),%eax
  102ce8:	50                   	push   %eax
  102ce9:	e8 72 14 00 00       	call   104160 <debug_panic>
  102cee:	83 c4 10             	add    $0x10,%esp
  102cf1:	8b 4c 24 04          	mov    0x4(%esp),%ecx
  102cf5:	e9 10 ff ff ff       	jmp    102c0a <ioapic_init+0x5a>
  102cfa:	8d b6 00 00 00 00    	lea    0x0(%esi),%esi

00102d00 <ioapic_enable>:

void ioapic_enable(uint8_t irq, lapicid_t apicid, bool trigger_mode, bool polarity)
{
  102d00:	55                   	push   %ebp
  102d01:	57                   	push   %edi
  102d02:	56                   	push   %esi
  102d03:	53                   	push   %ebx
  102d04:	e8 99 d6 ff ff       	call   1003a2 <__x86.get_pc_thunk.bx>
  102d09:	81 c3 eb e2 00 00    	add    $0xe2eb,%ebx
  102d0f:	83 ec 2c             	sub    $0x2c,%esp
  102d12:	8b 44 24 44          	mov    0x44(%esp),%eax
  102d16:	8b 4c 24 40          	mov    0x40(%esp),%ecx
  102d1a:	8b 7c 24 4c          	mov    0x4c(%esp),%edi
  102d1e:	89 44 24 10          	mov    %eax,0x10(%esp)
  102d22:	8b 44 24 48          	mov    0x48(%esp),%eax
  102d26:	89 4c 24 1c          	mov    %ecx,0x1c(%esp)
  102d2a:	89 44 24 14          	mov    %eax,0x14(%esp)
    // Mark interrupt edge-triggered, active high,
    // enabled, and routed to the given APIC ID,
    int i;
    for (i = 0; i < ioapic_num; i++) {
  102d2e:	8b 83 ac 88 02 00    	mov    0x288ac(%ebx),%eax
  102d34:	85 c0                	test   %eax,%eax
  102d36:	0f 8e dc 00 00 00    	jle    102e18 <ioapic_enable+0x118>
            break;
        }
    }

    if (i == ioapic_num)
        KERN_PANIC("Cannot enable IRQ %d on IOAPIC.\n", irq);
  102d3c:	0f b6 c9             	movzbl %cl,%ecx
  102d3f:	89 7c 24 18          	mov    %edi,0x18(%esp)
    for (i = 0; i < ioapic_num; i++) {
  102d43:	31 c0                	xor    %eax,%eax
  102d45:	8d b3 cc 88 02 00    	lea    0x288cc(%ebx),%esi
  102d4b:	89 4c 24 0c          	mov    %ecx,0xc(%esp)
  102d4f:	90                   	nop
        ioapic_t *ioapic = ioapics[i];
  102d50:	8b 94 83 2c 89 02 00 	mov    0x2892c(%ebx,%eax,4),%edx
        if (irq >= gsi[i] && irq <= gsi[i] + maxintr) {
  102d57:	8b 4c 24 0c          	mov    0xc(%esp),%ecx
    base->reg = reg;
  102d5b:	c7 02 01 00 00 00    	movl   $0x1,(%edx)
    return base->data;
  102d61:	8b 7a 10             	mov    0x10(%edx),%edi
        if (irq >= gsi[i] && irq <= gsi[i] + maxintr) {
  102d64:	8b 2c 86             	mov    (%esi,%eax,4),%ebp
  102d67:	39 cd                	cmp    %ecx,%ebp
  102d69:	7f 15                	jg     102d80 <ioapic_enable+0x80>
        int maxintr = (ioapic_read(ioapic, IOAPIC_VER) >> 16) & 0xFF;
  102d6b:	c1 ef 10             	shr    $0x10,%edi
        if (irq >= gsi[i] && irq <= gsi[i] + maxintr) {
  102d6e:	8b 2c 86             	mov    (%esi,%eax,4),%ebp
        int maxintr = (ioapic_read(ioapic, IOAPIC_VER) >> 16) & 0xFF;
  102d71:	89 f9                	mov    %edi,%ecx
  102d73:	0f b6 f9             	movzbl %cl,%edi
        if (irq >= gsi[i] && irq <= gsi[i] + maxintr) {
  102d76:	8b 4c 24 0c          	mov    0xc(%esp),%ecx
  102d7a:	01 ef                	add    %ebp,%edi
  102d7c:	39 cf                	cmp    %ecx,%edi
  102d7e:	7d 20                	jge    102da0 <ioapic_enable+0xa0>
    for (i = 0; i < ioapic_num; i++) {
  102d80:	8b 93 ac 88 02 00    	mov    0x288ac(%ebx),%edx
  102d86:	83 c0 01             	add    $0x1,%eax
  102d89:	39 c2                	cmp    %eax,%edx
  102d8b:	7f c3                	jg     102d50 <ioapic_enable+0x50>
    if (i == ioapic_num)
  102d8d:	8b 93 ac 88 02 00    	mov    0x288ac(%ebx),%edx
  102d93:	39 c2                	cmp    %eax,%edx
  102d95:	74 5b                	je     102df2 <ioapic_enable+0xf2>
}
  102d97:	83 c4 2c             	add    $0x2c,%esp
  102d9a:	5b                   	pop    %ebx
  102d9b:	5e                   	pop    %esi
  102d9c:	5f                   	pop    %edi
  102d9d:	5d                   	pop    %ebp
  102d9e:	c3                   	ret
  102d9f:	90                   	nop
                         ((trigger_mode << 15) | (polarity << 13) | (T_IRQ0 + irq)));
  102da0:	8b 7c 24 18          	mov    0x18(%esp),%edi
  102da4:	0f b6 6c 24 14       	movzbl 0x14(%esp),%ebp
  102da9:	89 54 24 0c          	mov    %edx,0xc(%esp)
  102dad:	89 fa                	mov    %edi,%edx
  102daf:	c1 e5 0f             	shl    $0xf,%ebp
  102db2:	0f b6 fa             	movzbl %dl,%edi
                         IOAPIC_TABLE + 2 * (irq - gsi[i]),
  102db5:	89 ca                	mov    %ecx,%edx
                         ((trigger_mode << 15) | (polarity << 13) | (T_IRQ0 + irq)));
  102db7:	c1 e7 0d             	shl    $0xd,%edi
  102dba:	09 ef                	or     %ebp,%edi
  102dbc:	8d 69 20             	lea    0x20(%ecx),%ebp
  102dbf:	09 fd                	or     %edi,%ebp
                         IOAPIC_TABLE + 2 * (irq - gsi[i]),
  102dc1:	8b 3c 86             	mov    (%esi,%eax,4),%edi
  102dc4:	29 fa                	sub    %edi,%edx
            ioapic_write(ioapic,
  102dc6:	8d 7c 12 10          	lea    0x10(%edx,%edx,1),%edi
    base->reg = reg;
  102dca:	8b 54 24 0c          	mov    0xc(%esp),%edx
  102dce:	89 3a                	mov    %edi,(%edx)
            ioapic_write(ioapic,
  102dd0:	8b 7c 24 10          	mov    0x10(%esp),%edi
    base->data = data;
  102dd4:	89 6a 10             	mov    %ebp,0x10(%edx)
                         IOAPIC_TABLE + 2 * (irq - gsi[i]) + 1,
  102dd7:	8b 34 86             	mov    (%esi,%eax,4),%esi
            ioapic_write(ioapic,
  102dda:	c1 e7 18             	shl    $0x18,%edi
                         IOAPIC_TABLE + 2 * (irq - gsi[i]) + 1,
  102ddd:	29 f1                	sub    %esi,%ecx
            ioapic_write(ioapic,
  102ddf:	8d 4c 09 11          	lea    0x11(%ecx,%ecx,1),%ecx
    base->reg = reg;
  102de3:	89 0a                	mov    %ecx,(%edx)
    base->data = data;
  102de5:	89 7a 10             	mov    %edi,0x10(%edx)
    if (i == ioapic_num)
  102de8:	8b 93 ac 88 02 00    	mov    0x288ac(%ebx),%edx
  102dee:	39 c2                	cmp    %eax,%edx
  102df0:	75 a5                	jne    102d97 <ioapic_enable+0x97>
        KERN_PANIC("Cannot enable IRQ %d on IOAPIC.\n", irq);
  102df2:	0f b6 44 24 1c       	movzbl 0x1c(%esp),%eax
  102df7:	50                   	push   %eax
  102df8:	8d 83 04 8c ff ff    	lea    -0x73fc(%ebx),%eax
  102dfe:	50                   	push   %eax
  102dff:	8d 83 a7 82 ff ff    	lea    -0x7d59(%ebx),%eax
  102e05:	6a 5d                	push   $0x5d
  102e07:	50                   	push   %eax
  102e08:	e8 53 13 00 00       	call   104160 <debug_panic>
  102e0d:	83 c4 10             	add    $0x10,%esp
}
  102e10:	83 c4 2c             	add    $0x2c,%esp
  102e13:	5b                   	pop    %ebx
  102e14:	5e                   	pop    %esi
  102e15:	5f                   	pop    %edi
  102e16:	5d                   	pop    %ebp
  102e17:	c3                   	ret
    for (i = 0; i < ioapic_num; i++) {
  102e18:	31 c0                	xor    %eax,%eax
  102e1a:	e9 6e ff ff ff       	jmp    102d8d <ioapic_enable+0x8d>
  102e1f:	90                   	nop

00102e20 <ioapic_number>:

int ioapic_number(void)
{
    return ioapic_num;
  102e20:	e8 75 d5 ff ff       	call   10039a <__x86.get_pc_thunk.ax>
  102e25:	05 cf e1 00 00       	add    $0xe1cf,%eax
  102e2a:	8b 80 ac 88 02 00    	mov    0x288ac(%eax),%eax
}
  102e30:	c3                   	ret
  102e31:	2e 8d b4 26 00 00 00 	lea    %cs:0x0(%esi,%eiz,1),%esi
  102e38:	00 
  102e39:	8d b4 26 00 00 00 00 	lea    0x0(%esi,%eiz,1),%esi

00102e40 <ioapic_get>:

ioapic_t *ioapic_get(uint32_t idx)
{
    if (idx >= ioapic_num)
  102e40:	e8 55 d5 ff ff       	call   10039a <__x86.get_pc_thunk.ax>
  102e45:	05 af e1 00 00       	add    $0xe1af,%eax
{
  102e4a:	8b 54 24 04          	mov    0x4(%esp),%edx
    if (idx >= ioapic_num)
  102e4e:	8b 88 ac 88 02 00    	mov    0x288ac(%eax),%ecx
  102e54:	39 ca                	cmp    %ecx,%edx
  102e56:	73 08                	jae    102e60 <ioapic_get+0x20>
        return NULL;
    return ioapics[idx];
  102e58:	8b 84 90 2c 89 02 00 	mov    0x2892c(%eax,%edx,4),%eax
  102e5f:	c3                   	ret
        return NULL;
  102e60:	31 c0                	xor    %eax,%eax
}
  102e62:	c3                   	ret

00102e63 <__x86.get_pc_thunk.cx>:
  102e63:	8b 0c 24             	mov    (%esp),%ecx
  102e66:	c3                   	ret
  102e67:	66 90                	xchg   %ax,%ax
  102e69:	66 90                	xchg   %ax,%ax
  102e6b:	66 90                	xchg   %ax,%ax
  102e6d:	66 90                	xchg   %ax,%ax
  102e6f:	90                   	nop

00102e70 <mpsearch1>:
    return sum;
}

/* Look for an MP structure in the len bytes at addr. */
static struct mp *mpsearch1(uint8_t *addr, int len)
{
  102e70:	55                   	push   %ebp
    uint8_t *e, *p;

    e = addr + len;
  102e71:	8d 2c 10             	lea    (%eax,%edx,1),%ebp
{
  102e74:	57                   	push   %edi
  102e75:	56                   	push   %esi
  102e76:	e8 aa 0d 00 00       	call   103c25 <__x86.get_pc_thunk.si>
  102e7b:	81 c6 79 e1 00 00    	add    $0xe179,%esi
  102e81:	53                   	push   %ebx
  102e82:	83 ec 1c             	sub    $0x1c,%esp
  102e85:	89 74 24 0c          	mov    %esi,0xc(%esp)
    for (p = addr; p < e; p += sizeof(struct mp))
  102e89:	39 e8                	cmp    %ebp,%eax
  102e8b:	73 5b                	jae    102ee8 <mpsearch1+0x78>
  102e8d:	89 c7                	mov    %eax,%edi
  102e8f:	8d b6 c8 82 ff ff    	lea    -0x7d38(%esi),%esi
  102e95:	eb 0f                	jmp    102ea6 <mpsearch1+0x36>
  102e97:	2e 8d b4 26 00 00 00 	lea    %cs:0x0(%esi,%eiz,1),%esi
  102e9e:	00 
  102e9f:	90                   	nop
  102ea0:	89 df                	mov    %ebx,%edi
  102ea2:	39 eb                	cmp    %ebp,%ebx
  102ea4:	73 42                	jae    102ee8 <mpsearch1+0x78>
        if (memcmp(p, "_MP_", 4) == 0 && sum(p, sizeof(struct mp)) == 0)
  102ea6:	83 ec 04             	sub    $0x4,%esp
  102ea9:	6a 04                	push   $0x4
  102eab:	56                   	push   %esi
  102eac:	57                   	push   %edi
  102ead:	8b 5c 24 1c          	mov    0x1c(%esp),%ebx
  102eb1:	e8 9a 11 00 00       	call   104050 <memcmp>
  102eb6:	83 c4 10             	add    $0x10,%esp
  102eb9:	8d 5f 10             	lea    0x10(%edi),%ebx
  102ebc:	85 c0                	test   %eax,%eax
  102ebe:	75 e0                	jne    102ea0 <mpsearch1+0x30>
  102ec0:	89 fa                	mov    %edi,%edx
  102ec2:	8d b6 00 00 00 00    	lea    0x0(%esi),%esi
        sum += addr[i];
  102ec8:	0f b6 0a             	movzbl (%edx),%ecx
    for (i = 0; i < len; i++)
  102ecb:	83 c2 01             	add    $0x1,%edx
        sum += addr[i];
  102ece:	01 c8                	add    %ecx,%eax
    for (i = 0; i < len; i++)
  102ed0:	39 da                	cmp    %ebx,%edx
  102ed2:	75 f4                	jne    102ec8 <mpsearch1+0x58>
        if (memcmp(p, "_MP_", 4) == 0 && sum(p, sizeof(struct mp)) == 0)
  102ed4:	84 c0                	test   %al,%al
  102ed6:	75 c8                	jne    102ea0 <mpsearch1+0x30>
            return (struct mp *) p;
    return 0;
}
  102ed8:	83 c4 1c             	add    $0x1c,%esp
            return (struct mp *) p;
  102edb:	89 f8                	mov    %edi,%eax
}
  102edd:	5b                   	pop    %ebx
  102ede:	5e                   	pop    %esi
  102edf:	5f                   	pop    %edi
  102ee0:	5d                   	pop    %ebp
  102ee1:	c3                   	ret
  102ee2:	8d b6 00 00 00 00    	lea    0x0(%esi),%esi
  102ee8:	83 c4 1c             	add    $0x1c,%esp
    return 0;
  102eeb:	31 c0                	xor    %eax,%eax
}
  102eed:	5b                   	pop    %ebx
  102eee:	5e                   	pop    %esi
  102eef:	5f                   	pop    %edi
  102ef0:	5d                   	pop    %ebp
  102ef1:	c3                   	ret
  102ef2:	2e 8d b4 26 00 00 00 	lea    %cs:0x0(%esi,%eiz,1),%esi
  102ef9:	00 
  102efa:	8d b6 00 00 00 00    	lea    0x0(%esi),%esi

00102f00 <pcpu_mp_init>:

/*
 * Multiple processors initialization method using ACPI
 */
bool pcpu_mp_init(void)
{
  102f00:	55                   	push   %ebp
  102f01:	57                   	push   %edi
  102f02:	56                   	push   %esi
  102f03:	53                   	push   %ebx
  102f04:	e8 99 d4 ff ff       	call   1003a2 <__x86.get_pc_thunk.bx>
  102f09:	81 c3 eb e0 00 00    	add    $0xe0eb,%ebx
  102f0f:	83 ec 2c             	sub    $0x2c,%esp
    acpi_xsdt_t *xsdt;
    acpi_madt_t *madt;
    uint32_t ap_idx = 1;
    bool found_bsp = FALSE;

    if (mp_inited == TRUE)
  102f12:	80 bb 6d 89 02 00 01 	cmpb   $0x1,0x2896d(%ebx)
  102f19:	0f 84 92 01 00 00    	je     1030b1 <pcpu_mp_init+0x1b1>
        return TRUE;

    KERN_INFO("\n");
  102f1f:	83 ec 0c             	sub    $0xc,%esp
  102f22:	8d 83 59 85 ff ff    	lea    -0x7aa7(%ebx),%eax
  102f28:	50                   	push   %eax
  102f29:	e8 92 11 00 00       	call   1040c0 <debug_info>

    if ((rsdp = acpi_probe_rsdp()) == NULL) {
  102f2e:	e8 dd f3 ff ff       	call   102310 <acpi_probe_rsdp>
  102f33:	83 c4 10             	add    $0x10,%esp
  102f36:	89 c6                	mov    %eax,%esi
  102f38:	85 c0                	test   %eax,%eax
  102f3a:	0f 84 50 02 00 00    	je     103190 <pcpu_mp_init+0x290>
        KERN_DEBUG("Not found RSDP.\n");
        goto fallback;
    }

    xsdt = NULL;
    if ((xsdt = acpi_probe_xsdt(rsdp)) == NULL &&
  102f40:	83 ec 0c             	sub    $0xc,%esp
  102f43:	50                   	push   %eax
  102f44:	e8 b7 f5 ff ff       	call   102500 <acpi_probe_xsdt>
  102f49:	83 c4 10             	add    $0x10,%esp
  102f4c:	85 c0                	test   %eax,%eax
  102f4e:	0f 84 dc 01 00 00    	je     103130 <pcpu_mp_init+0x230>
        goto fallback;
    }

    if ((madt =
         (xsdt != NULL) ?
         (acpi_madt_t *) acpi_probe_xsdt_ent(xsdt, ACPI_MADT_SIG) :
  102f54:	83 ec 08             	sub    $0x8,%esp
  102f57:	68 41 50 49 43       	push   $0x43495041
  102f5c:	50                   	push   %eax
  102f5d:	e8 2e f6 ff ff       	call   102590 <acpi_probe_xsdt_ent>
  102f62:	83 c4 10             	add    $0x10,%esp
  102f65:	89 c7                	mov    %eax,%edi
    if ((madt =
  102f67:	85 ff                	test   %edi,%edi
  102f69:	0f 84 61 04 00 00    	je     1033d0 <pcpu_mp_init+0x4d0>
        KERN_DEBUG("Not found MADT.\n");
        goto fallback;
    }

    ismp = TRUE;
    lapic_register(madt->lapic_addr);
  102f6f:	83 ec 0c             	sub    $0xc,%esp
  102f72:	ff 77 24             	push   0x24(%edi)
    ncpu = 0;

    p = (uint8_t *) madt->ent;
  102f75:	8d 6f 2c             	lea    0x2c(%edi),%ebp
    ismp = TRUE;
  102f78:	c6 83 6c 89 02 00 01 	movb   $0x1,0x2896c(%ebx)
    lapic_register(madt->lapic_addr);
  102f7f:	e8 ac f6 ff ff       	call   102630 <lapic_register>
    e = (uint8_t *) madt + madt->length;
  102f84:	8b 77 04             	mov    0x4(%edi),%esi

    while (p < e) {
  102f87:	83 c4 10             	add    $0x10,%esp
    ncpu = 0;
  102f8a:	c7 83 70 89 02 00 00 	movl   $0x0,0x28970(%ebx)
  102f91:	00 00 00 
    e = (uint8_t *) madt + madt->length;
  102f94:	01 fe                	add    %edi,%esi
    while (p < e) {
  102f96:	39 f5                	cmp    %esi,%ebp
  102f98:	0f 83 e6 00 00 00    	jae    103084 <pcpu_mp_init+0x184>

            if (!(lapic_ent->flags & ACPI_APIC_ENABLED)) {
                break;
            }

            KERN_INFO("\tCPU%d: APIC id = %x, ", ncpu, lapic_ent->lapic_id);
  102f9e:	8d 83 02 83 ff ff    	lea    -0x7cfe(%ebx),%eax
    bool found_bsp = FALSE;
  102fa4:	31 c9                	xor    %ecx,%ecx

            ioapic_register(ioapic_ent->ioapic_addr, ioapic_ent->ioapic_id,
                            ioapic_ent->gsi);
            break;
        default:
            KERN_INFO("\tUnhandled ACPI entry (type=%x)\n", hdr->type);
  102fa6:	89 7c 24 18          	mov    %edi,0x18(%esp)
  102faa:	89 ef                	mov    %ebp,%edi
            KERN_INFO("\tCPU%d: APIC id = %x, ", ncpu, lapic_ent->lapic_id);
  102fac:	89 44 24 14          	mov    %eax,0x14(%esp)
            KERN_INFO("\tUnhandled ACPI entry (type=%x)\n", hdr->type);
  102fb0:	8d 83 6c 8c ff ff    	lea    -0x7394(%ebx),%eax
  102fb6:	89 cd                	mov    %ecx,%ebp
    uint32_t ap_idx = 1;
  102fb8:	c7 44 24 10 01 00 00 	movl   $0x1,0x10(%esp)
  102fbf:	00 
            KERN_INFO("\tUnhandled ACPI entry (type=%x)\n", hdr->type);
  102fc0:	89 44 24 0c          	mov    %eax,0xc(%esp)
  102fc4:	eb 30                	jmp    102ff6 <pcpu_mp_init+0xf6>
  102fc6:	2e 8d b4 26 00 00 00 	lea    %cs:0x0(%esi,%eiz,1),%esi
  102fcd:	00 
  102fce:	66 90                	xchg   %ax,%ax
        switch (hdr->type) {
  102fd0:	3c 01                	cmp    $0x1,%al
  102fd2:	0f 84 e8 00 00 00    	je     1030c0 <pcpu_mp_init+0x1c0>
            KERN_INFO("\tUnhandled ACPI entry (type=%x)\n", hdr->type);
  102fd8:	83 ec 08             	sub    $0x8,%esp
  102fdb:	50                   	push   %eax
  102fdc:	ff 74 24 18          	push   0x18(%esp)
  102fe0:	e8 db 10 00 00       	call   1040c0 <debug_info>
            break;
  102fe5:	83 c4 10             	add    $0x10,%esp
        }

        p += hdr->length;
  102fe8:	0f b6 47 01          	movzbl 0x1(%edi),%eax
  102fec:	01 c7                	add    %eax,%edi
    while (p < e) {
  102fee:	39 f7                	cmp    %esi,%edi
  102ff0:	0f 83 8a 00 00 00    	jae    103080 <pcpu_mp_init+0x180>
        switch (hdr->type) {
  102ff6:	0f b6 07             	movzbl (%edi),%eax
  102ff9:	84 c0                	test   %al,%al
  102ffb:	75 d3                	jne    102fd0 <pcpu_mp_init+0xd0>
            if (!(lapic_ent->flags & ACPI_APIC_ENABLED)) {
  102ffd:	f6 47 04 01          	testb  $0x1,0x4(%edi)
  103001:	74 e5                	je     102fe8 <pcpu_mp_init+0xe8>
            KERN_INFO("\tCPU%d: APIC id = %x, ", ncpu, lapic_ent->lapic_id);
  103003:	0f b6 47 03          	movzbl 0x3(%edi),%eax
  103007:	83 ec 04             	sub    $0x4,%esp
  10300a:	50                   	push   %eax
  10300b:	ff b3 70 89 02 00    	push   0x28970(%ebx)
  103011:	ff 74 24 20          	push   0x20(%esp)
  103015:	e8 a6 10 00 00       	call   1040c0 <debug_info>
            if (!found_bsp) {
  10301a:	89 e8                	mov    %ebp,%eax
  10301c:	83 c4 10             	add    $0x10,%esp
  10301f:	84 c0                	test   %al,%al
  103021:	0f 84 d1 00 00 00    	je     1030f8 <pcpu_mp_init+0x1f8>
                KERN_INFO("AP\n");
  103027:	83 ec 0c             	sub    $0xc,%esp
  10302a:	8d 83 1e 83 ff ff    	lea    -0x7ce2(%ebx),%eax
  103030:	50                   	push   %eax
  103031:	e8 8a 10 00 00       	call   1040c0 <debug_info>
    if (idx >= NUM_CPUS)
  103036:	8b 44 24 20          	mov    0x20(%esp),%eax
  10303a:	83 c4 10             	add    $0x10,%esp
  10303d:	83 f8 07             	cmp    $0x7,%eax
  103040:	77 1b                	ja     10305d <pcpu_mp_init+0x15d>
    struct pcpuinfo *info = (struct pcpuinfo *) get_pcpu_arch_info_pointer(idx);
  103042:	83 ec 0c             	sub    $0xc,%esp
                pcpu_mp_init_cpu(ap_idx, lapic_ent->lapic_id, FALSE);
  103045:	0f b6 6f 03          	movzbl 0x3(%edi),%ebp
    struct pcpuinfo *info = (struct pcpuinfo *) get_pcpu_arch_info_pointer(idx);
  103049:	50                   	push   %eax
  10304a:	e8 91 2c 00 00       	call   105ce0 <get_pcpu_arch_info_pointer>
    info->lapicid = lapic_id;
  10304f:	89 e9                	mov    %ebp,%ecx
    info->bsp = is_bsp;
  103051:	83 c4 10             	add    $0x10,%esp
    info->lapicid = lapic_id;
  103054:	0f b6 e9             	movzbl %cl,%ebp
    info->bsp = is_bsp;
  103057:	c6 40 04 00          	movb   $0x0,0x4(%eax)
    info->lapicid = lapic_id;
  10305b:	89 28                	mov    %ebp,(%eax)
                ap_idx++;
  10305d:	83 44 24 10 01       	addl   $0x1,0x10(%esp)
        p += hdr->length;
  103062:	0f b6 47 01          	movzbl 0x1(%edi),%eax
            ncpu++;
  103066:	83 83 70 89 02 00 01 	addl   $0x1,0x28970(%ebx)
            break;
  10306d:	bd 01 00 00 00       	mov    $0x1,%ebp
        p += hdr->length;
  103072:	01 c7                	add    %eax,%edi
    while (p < e) {
  103074:	39 f7                	cmp    %esi,%edi
  103076:	0f 82 7a ff ff ff    	jb     102ff6 <pcpu_mp_init+0xf6>
  10307c:	8d 74 26 00          	lea    0x0(%esi,%eiz,1),%esi
  103080:	8b 7c 24 18          	mov    0x18(%esp),%edi
    /*
     * Force NMI and 8259 signals to APIC when PIC mode
     * is not implemented.
     *
     */
    if ((madt->flags & APIC_MADT_PCAT_COMPAT) == 0) {
  103084:	f6 47 28 01          	testb  $0x1,0x28(%edi)
  103088:	0f 84 d2 00 00 00    	je     103160 <pcpu_mp_init+0x260>
    }

    /*
     * Copy AP boot code to 0x8000.
     */
    memmove((uint8_t *) 0x8000,
  10308e:	83 ec 04             	sub    $0x4,%esp
  103091:	ff b3 e8 ff ff ff    	push   -0x18(%ebx)
  103097:	ff b3 fc ff ff ff    	push   -0x4(%ebx)
  10309d:	68 00 80 00 00       	push   $0x8000
  1030a2:	e8 e9 0d 00 00       	call   103e90 <memmove>
            _binary___obj_kern_init_boot_ap_start,
            (size_t) _binary___obj_kern_init_boot_ap_size);

    mp_inited = TRUE;
  1030a7:	c6 83 6d 89 02 00 01 	movb   $0x1,0x2896d(%ebx)
    return TRUE;
  1030ae:	83 c4 10             	add    $0x10,%esp
        ismp = 0;
        ncpu = 1;
        return FALSE;
    } else
        return TRUE;
}
  1030b1:	83 c4 2c             	add    $0x2c,%esp
        return TRUE;
  1030b4:	b8 01 00 00 00       	mov    $0x1,%eax
}
  1030b9:	5b                   	pop    %ebx
  1030ba:	5e                   	pop    %esi
  1030bb:	5f                   	pop    %edi
  1030bc:	5d                   	pop    %ebp
  1030bd:	c3                   	ret
  1030be:	66 90                	xchg   %ax,%ax
            KERN_INFO("\tIOAPIC: APIC id = %x, base = %x\n",
  1030c0:	83 ec 04             	sub    $0x4,%esp
  1030c3:	ff 77 04             	push   0x4(%edi)
  1030c6:	0f b6 47 02          	movzbl 0x2(%edi),%eax
  1030ca:	50                   	push   %eax
  1030cb:	8d 83 48 8c ff ff    	lea    -0x73b8(%ebx),%eax
  1030d1:	50                   	push   %eax
  1030d2:	e8 e9 0f 00 00       	call   1040c0 <debug_info>
            ioapic_register(ioapic_ent->ioapic_addr, ioapic_ent->ioapic_id,
  1030d7:	83 c4 0c             	add    $0xc,%esp
